(dp0
S'name'
p1
S'size5_motion_mdp'
p2
sS'state_label'
p3
(dp4
(F1.0
F9.0
S'W'
p5
tp6
(dp7
c__builtin__
frozenset
p8
((lp9
tp10
Rp11
F0.0
sg8
((lp12
S'base3'
p13
aS'base'
p14
atp15
Rp16
F1.0
ss(F3.0
F3.0
S'S'
p17
tp18
(dp19
g11
F1.0
ss(F5.0
F1.0
g17
tp20
(dp21
g11
F0.01
sg8
((lp22
S'obstacle'
p23
atp24
Rp25
F0.99
ss(F9.0
F1.0
S'E'
p26
tp27
(dp28
g8
((lp29
S'base1'
p30
ag14
atp31
Rp32
F1.0
sg11
F0.0
ss(F9.0
F5.0
g5
tp33
(dp34
g8
((lp35
S'supply'
p36
atp37
Rp38
F0.5
sg11
F0.5
ss(F5.0
F1.0
S'N'
p39
tp40
g21
s(F1.0
F3.0
g5
tp41
(dp42
g11
F1.0
ss(F3.0
F9.0
g5
tp43
(dp44
g11
F1.0
ss(F7.0
F7.0
g17
tp45
(dp46
g11
F1.0
ss(F9.0
F5.0
g17
tp47
g34
s(F3.0
F3.0
g39
tp48
g19
s(F1.0
F3.0
g17
tp49
g42
s(F9.0
F5.0
g39
tp50
g34
s(F3.0
F5.0
g26
tp51
(dp52
g11
F1.0
ss(F1.0
F9.0
g39
tp53
g7
s(F3.0
F9.0
g17
tp54
g44
s(F7.0
F5.0
g39
tp55
(dp56
g11
F1.0
ss(F7.0
F7.0
g5
tp57
g46
s(F5.0
F7.0
g5
tp58
(dp59
g11
F1.0
ss(F7.0
F3.0
g39
tp60
(dp61
g11
F1.0
ss(F5.0
F3.0
g39
tp62
(dp63
g8
((lp64
g36
atp65
Rp66
F0.2
sg11
F0.8
ss(F5.0
F7.0
g17
tp67
g59
s(F3.0
F1.0
g26
tp68
(dp69
g11
F1.0
ss(F9.0
F3.0
g5
tp70
(dp71
g11
F1.0
ss(F3.0
F3.0
g5
tp72
g19
s(F5.0
F5.0
g17
tp73
(dp74
g11
F1.0
ss(F7.0
F1.0
g26
tp75
(dp76
g11
F1.0
ss(F1.0
F9.0
g26
tp77
g7
s(F9.0
F7.0
g39
tp78
(dp79
g11
F1.0
ss(F1.0
F7.0
g26
tp80
(dp81
g11
F1.0
ss(F9.0
F3.0
g17
tp82
g71
s(F5.0
F9.0
g26
tp83
(dp84
g8
((lp85
g36
atp86
Rp87
F0.5
sg11
F0.5
ss(F5.0
F5.0
g5
tp88
g74
s(F9.0
F1.0
g17
tp89
g28
s(F3.0
F7.0
g39
tp90
(dp91
g11
F1.0
ss(F9.0
F9.0
g39
tp92
(dp93
g8
((lp94
S'base2'
p95
ag14
atp96
Rp97
F1.0
sg11
F0.0
ss(F1.0
F5.0
g5
tp98
(dp99
g8
((lp100
g36
atp101
Rp102
F0.8
sg11
F0.2
ss(F7.0
F5.0
g26
tp103
g56
s(F3.0
F5.0
g17
tp104
g52
s(F7.0
F1.0
g39
tp105
g76
s(F9.0
F1.0
g5
tp106
g28
s(F1.0
F3.0
g26
tp107
g42
s(F1.0
F5.0
g17
tp108
g99
s(F5.0
F3.0
g26
tp109
g63
s(F3.0
F5.0
g5
tp110
g52
s(F3.0
F7.0
g26
tp111
g91
s(F5.0
F9.0
g39
tp112
g84
s(F7.0
F1.0
g17
tp113
g76
s(F9.0
F7.0
g26
tp114
g79
s(F3.0
F5.0
g39
tp115
g52
s(F1.0
F7.0
g17
tp116
g81
s(F5.0
F7.0
g26
tp117
g59
s(F5.0
F3.0
g17
tp118
g63
s(F7.0
F1.0
g5
tp119
g76
s(F1.0
F1.0
g39
tp120
(dp121
g11
F1.0
ss(F9.0
F3.0
g26
tp122
g71
s(F7.0
F3.0
g26
tp123
g61
s(F1.0
F1.0
g17
tp124
g121
s(F1.0
F5.0
g26
tp125
g99
s(F5.0
F7.0
g39
tp126
g59
s(F7.0
F5.0
g5
tp127
g56
s(F5.0
F9.0
g5
tp128
g84
s(F1.0
F1.0
g5
tp129
g121
s(F9.0
F3.0
g39
tp130
g71
s(F7.0
F9.0
g26
tp131
(dp132
g11
F1.0
ss(F7.0
F5.0
g17
tp133
g56
s(F9.0
F7.0
g17
tp134
g79
s(F3.0
F9.0
g39
tp135
g44
s(F5.0
F9.0
g17
tp136
g84
s(F9.0
F9.0
g26
tp137
g93
s(F5.0
F1.0
g26
tp138
g21
s(F1.0
F3.0
g39
tp139
g42
s(F9.0
F7.0
g5
tp140
g79
s(F1.0
F5.0
g39
tp141
g99
s(F3.0
F3.0
g26
tp142
g19
s(F3.0
F7.0
g5
tp143
g91
s(F9.0
F5.0
g26
tp144
g34
s(F3.0
F1.0
g17
tp145
g69
s(F3.0
F7.0
g17
tp146
g91
s(F5.0
F3.0
g5
tp147
g63
s(F3.0
F1.0
g39
tp148
g69
s(F3.0
F9.0
g26
tp149
g44
s(F7.0
F9.0
g17
tp150
g132
s(F7.0
F7.0
g26
tp151
g46
s(F7.0
F3.0
g5
tp152
g61
s(F5.0
F5.0
g39
tp153
g74
s(F1.0
F1.0
g26
tp154
g121
s(F1.0
F7.0
g39
tp155
g81
s(F7.0
F9.0
g5
tp156
g132
s(F7.0
F3.0
g17
tp157
g61
s(F9.0
F9.0
g17
tp158
g93
s(F3.0
F1.0
g5
tp159
g69
s(F9.0
F1.0
g39
tp160
g28
s(F7.0
F9.0
g39
tp161
g132
s(F1.0
F9.0
g17
tp162
g7
s(F9.0
F9.0
g5
tp163
g93
s(F1.0
F7.0
g5
tp164
g81
s(F5.0
F5.0
g26
tp165
g74
s(F5.0
F1.0
g5
tp166
g21
s(F7.0
F7.0
g39
tp167
g46
ssS'states'
p168
(lp169
g6
ag20
ag27
ag33
ag40
ag41
ag43
ag45
ag47
ag48
ag49
ag50
ag51
ag53
ag54
ag55
ag57
ag58
ag60
ag62
ag67
ag68
ag70
ag72
ag73
ag75
ag77
ag78
ag80
ag82
ag83
ag88
ag89
ag90
ag92
ag98
ag103
ag104
ag105
ag106
ag107
ag108
ag109
ag110
ag111
ag112
ag113
ag114
ag115
ag159
ag117
ag118
ag119
ag120
ag122
ag123
ag124
ag125
ag126
ag127
ag128
ag129
ag130
ag131
ag133
ag134
ag135
ag136
ag137
ag138
ag139
ag140
ag141
ag142
ag143
ag144
ag166
ag164
ag146
ag147
ag148
ag149
ag150
ag151
ag152
ag153
ag154
ag155
ag156
ag157
ag158
ag116
ag160
ag161
ag162
ag163
ag145
ag165
ag18
ag167
asS'init'
p170
(F5.0
F5.0
g39
tp171
sS'state_act'
p172
(dp173
g6
c__builtin__
set
p174
((lp175
(g17
S'T'
p176
tp177
a(g176
S'R'
p178
tp179
a(S'B'
p180
S'K'
p181
tp182
a(g176
S'L'
p183
tp184
atp185
Rp186
sg18
g174
((lp187
(S'F'
p188
g178
tp189
ag177
ag179
ag184
ag182
atp190
Rp191
sg20
g174
((lp192
g177
ag179
ag184
ag182
atp193
Rp194
sg27
g174
((lp195
g184
ag182
ag177
ag179
atp196
Rp197
sg33
g174
((lp198
g189
ag177
ag184
ag179
atp199
Rp200
sg40
g174
((lp201
g189
ag177
ag184
ag179
atp202
Rp203
sg41
g174
((lp204
g182
ag177
ag184
ag179
atp205
Rp206
sg43
g174
((lp207
g189
ag177
ag179
ag182
ag184
atp208
Rp209
sg45
g174
((lp210
g189
ag177
ag179
ag184
ag182
atp211
Rp212
sg47
g174
((lp213
g189
ag182
ag177
ag184
ag179
atp214
Rp215
sg48
g174
((lp216
g184
ag189
ag182
ag177
ag179
atp217
Rp218
sg49
g174
((lp219
g189
ag182
ag177
ag184
ag179
atp220
Rp221
sg50
g174
((lp222
g189
ag182
ag179
ag177
ag184
atp223
Rp224
sg51
g174
((lp225
g189
ag182
ag177
ag184
ag179
atp226
Rp227
sg53
g174
((lp228
g177
ag179
ag182
ag184
atp229
Rp230
sg54
g174
((lp231
g189
ag177
ag184
ag179
atp232
Rp233
sg55
g174
((lp234
g189
ag182
ag177
ag184
ag179
atp235
Rp236
sg57
g174
((lp237
g189
ag182
ag177
ag184
ag179
atp238
Rp239
sg58
g174
((lp240
g189
ag177
ag179
ag184
ag182
atp241
Rp242
sg60
g174
((lp243
g189
ag177
ag179
ag182
ag184
atp244
Rp245
sg62
g174
((lp246
g189
ag182
ag179
ag177
ag184
atp247
Rp248
sg67
g174
((lp249
g189
ag182
ag179
ag177
ag184
atp250
Rp251
sg68
g174
((lp252
g189
ag177
ag179
ag182
ag184
atp253
Rp254
sg70
g174
((lp255
g189
ag177
ag184
ag179
atp256
Rp257
sg72
g174
((lp258
g184
ag189
ag182
ag177
ag179
atp259
Rp260
sg73
g174
((lp261
g189
ag182
ag177
ag184
ag179
atp262
Rp263
sg75
g174
((lp264
g189
ag177
ag182
ag184
ag179
atp265
Rp266
sg77
g174
((lp267
g189
ag177
ag184
ag179
atp268
Rp269
sg78
g174
((lp270
g189
ag177
ag179
ag182
ag184
atp271
Rp272
sg80
g174
((lp273
g189
ag177
ag184
ag179
atp274
Rp275
sg82
g174
((lp276
g189
ag182
ag179
ag177
ag184
atp277
Rp278
sg83
g174
((lp279
g189
ag177
ag182
ag184
ag179
atp280
Rp281
sg88
g174
((lp282
g184
ag189
ag182
ag177
ag179
atp283
Rp284
sg89
g174
((lp285
g182
ag179
ag177
ag184
atp286
Rp287
sg90
g174
((lp288
g189
ag182
ag179
ag177
ag184
atp289
Rp290
sg92
g174
((lp291
g182
ag177
ag184
ag179
atp292
Rp293
sg98
g174
((lp294
g184
ag182
ag177
ag179
atp295
Rp296
sg103
g174
((lp297
g189
ag182
ag177
ag184
ag179
atp298
Rp299
sg104
g174
((lp300
g189
ag177
ag179
ag182
ag184
atp301
Rp302
sg105
g174
((lp303
g189
ag177
ag184
ag179
atp304
Rp305
sg106
g174
((lp306
g189
ag177
ag184
ag179
atp307
Rp308
sg107
g174
((lp309
g189
ag177
ag184
ag179
atp310
Rp311
sg108
g174
((lp312
g184
ag189
ag177
ag182
ag179
atp313
Rp314
sg109
g174
((lp315
g189
ag177
ag179
ag182
ag184
atp316
Rp317
sg110
g174
((lp318
g184
ag189
ag177
ag182
ag179
atp319
Rp320
sg111
g174
((lp321
g189
ag182
ag177
ag184
ag179
atp322
Rp323
sg112
g174
((lp324
g184
ag177
ag182
ag179
atp325
Rp326
sg113
g174
((lp327
g184
ag177
ag182
ag179
atp328
Rp329
sg114
g174
((lp330
g184
ag177
ag182
ag179
atp331
Rp332
sg115
g174
((lp333
g189
ag177
ag179
ag182
ag184
atp334
Rp335
sg116
g174
((lp336
g184
ag189
ag182
ag177
ag179
atp337
Rp338
sg117
g174
((lp339
g189
ag177
ag182
ag184
ag179
atp340
Rp341
sg118
g174
((lp342
g189
ag177
ag182
ag184
ag179
atp343
Rp344
sg119
g174
((lp345
g184
ag189
ag177
ag182
ag179
atp346
Rp347
sg120
g174
((lp348
g189
ag177
ag184
ag179
atp349
Rp350
sg122
g174
((lp351
g177
ag179
ag182
ag184
atp352
Rp353
sg123
g174
((lp354
g189
ag177
ag179
ag182
ag184
atp355
Rp356
sg124
g174
((lp357
g184
ag182
ag177
ag179
atp358
Rp359
sg125
g174
((lp360
g189
ag177
ag184
ag179
atp361
Rp362
sg126
g174
((lp363
g184
ag189
ag177
ag182
ag179
atp364
Rp365
sg127
g174
((lp366
g189
ag177
ag179
ag182
ag184
atp367
Rp368
sg128
g174
((lp369
g189
ag177
ag179
ag184
ag182
atp370
Rp371
sg129
g174
((lp372
g177
ag179
ag184
ag182
atp373
Rp374
sg130
g174
((lp375
g189
ag177
ag179
ag182
ag184
atp376
Rp377
sg131
g174
((lp378
g184
ag189
ag177
ag182
ag179
atp379
Rp380
sg133
g174
((lp381
g184
ag189
ag177
ag182
ag179
atp382
Rp383
sg134
g174
((lp384
g189
ag177
ag179
ag182
ag184
atp385
Rp386
sg135
g174
((lp387
g184
ag182
ag177
ag179
atp388
Rp389
sg136
g174
((lp390
g189
ag177
ag184
ag179
atp391
Rp392
sg137
g174
((lp393
g182
ag179
ag177
ag184
atp394
Rp395
sg138
g174
((lp396
g189
ag182
ag177
ag184
ag179
atp397
Rp398
sg139
g174
((lp399
g189
ag182
ag179
ag177
ag184
atp400
Rp401
sg140
g174
((lp402
g189
ag177
ag184
ag179
atp403
Rp404
sg141
g174
((lp405
g184
ag189
ag177
ag182
ag179
atp406
Rp407
sg142
g174
((lp408
g189
ag182
ag179
ag177
ag184
atp409
Rp410
sg143
g174
((lp411
g184
ag189
ag182
ag177
ag179
atp412
Rp413
sg144
g174
((lp414
g182
ag179
ag177
ag184
atp415
Rp416
sg145
g174
((lp417
g182
ag179
ag177
ag184
atp418
Rp419
sg146
g174
((lp420
g189
ag182
ag177
ag184
ag179
atp421
Rp422
sg147
g174
((lp423
g184
ag189
ag177
ag182
ag179
atp424
Rp425
sg148
g174
((lp426
g189
ag177
ag184
ag179
atp427
Rp428
sg149
g174
((lp429
g184
ag189
ag177
ag182
ag179
atp430
Rp431
sg150
g174
((lp432
g189
ag177
ag184
ag179
atp433
Rp434
sg151
g174
((lp435
g189
ag177
ag179
ag182
ag184
atp436
Rp437
sg152
g174
((lp438
g189
ag177
ag179
ag182
ag184
atp439
Rp440
sg153
g174
((lp441
g184
ag189
ag182
ag177
ag179
atp442
Rp443
sg154
g174
((lp444
g189
ag177
ag184
ag179
atp445
Rp446
sg155
g174
((lp447
g189
ag182
ag177
ag184
ag179
atp448
Rp449
sg156
g174
((lp450
g184
ag189
ag177
ag182
ag179
atp451
Rp452
sg157
g174
((lp453
g189
ag182
ag179
ag177
ag184
atp454
Rp455
sg158
g174
((lp456
g189
ag177
ag184
ag179
atp457
Rp458
sg159
g174
((lp459
g189
ag177
ag182
ag184
ag179
atp460
Rp461
sg160
g174
((lp462
g189
ag177
ag184
ag179
atp463
Rp464
sg161
g174
((lp465
g182
ag179
ag177
ag184
atp466
Rp467
sg162
g174
((lp468
g189
ag177
ag184
ag179
atp469
Rp470
sg163
g174
((lp471
g189
ag177
ag184
ag179
atp472
Rp473
sg164
g174
((lp474
g182
ag179
ag177
ag184
atp475
Rp476
sg165
g174
((lp477
g189
ag182
ag179
ag177
ag184
atp478
Rp479
sg166
g174
((lp480
g189
ag177
ag182
ag184
ag179
atp481
Rp482
sg167
g174
((lp483
g184
ag189
ag182
ag177
ag179
atp484
Rp485
ssS'edge_prop'
p486
(dp487
(g125
(F3.0
F3.0
g26
tp488
tp489
(dp490
g189
(lp491
F0.1
aI2
ass(g111
(F1.0
F7.0
g26
tp492
tp493
(dp494
g182
(lp495
F0.7
aI4
ass(g145
(F3.0
F1.0
g39
tp496
tp497
(dp498
g184
(lp499
F0.05
aI3
asg179
(lp500
F0.05
aI3
ass(g49
(F1.0
F3.0
g17
tp501
tp502
(dp503
g177
(lp504
F0.99
aI1
asg184
(lp505
F0.05
aI3
asg179
(lp506
F0.05
aI3
ass(g165
(F3.0
F7.0
g26
tp507
tp508
(dp509
g182
(lp510
F0.15
aI4
ass(g53
(F1.0
F9.0
g26
tp511
tp512
(dp513
g177
(lp514
F0.005
aI1
asg179
(lp515
F0.9
aI3
ass(g92
(F7.0
F7.0
g39
tp516
tp517
(dp518
g182
(lp519
F0.225
aI4
ass(g136
(F7.0
F7.0
g17
tp520
tp521
(dp522
g189
(lp523
F0.1
aI2
ass(g106
(F7.0
F3.0
g5
tp524
tp525
(dp526
g189
(lp527
F0.15
aI2
ass(g140
(F9.0
F7.0
g17
tp528
tp529
(dp530
g177
(lp531
F0.005
aI1
asg184
(lp532
F0.9
aI3
ass(g159
(F5.0
F1.0
g5
tp533
tp534
(dp535
g182
(lp536
F0.7749999999999999
aI4
ass(g118
(F5.0
F5.0
g17
tp537
tp538
(dp539
g182
(lp540
F0.7
aI4
ass(g80
(F1.0
F7.0
g5
tp541
tp542
(dp543
g184
(lp544
F0.05
aI3
asg179
(lp545
F0.05
aI3
ass(g156
(F7.0
F9.0
g17
tp546
tp547
(dp548
g177
(lp549
F0.005
aI1
asg184
(lp550
F0.9
aI3
ass(g68
(F1.0
F3.0
g26
tp551
tp552
(dp553
g182
(lp554
F0.225
aI4
ass(g134
(F9.0
F9.0
g17
tp555
tp556
(dp557
g182
(lp558
F0.7749999999999999
aI4
ass(g104
(F3.0
F5.0
g26
tp559
tp560
(dp561
g177
(lp562
F0.005
aI1
asg184
(lp563
F0.9
aI3
ass(g57
(F7.0
F7.0
g39
tp564
tp565
(dp566
g177
(lp567
F0.005
aI1
asg179
(lp568
F0.9
aI3
ass(g67
(F5.0
F7.0
g5
tp569
tp570
(dp571
g177
(lp572
F0.005
aI1
asg179
(lp573
F0.9
aI3
ass(g126
(F5.0
F7.0
g17
tp574
tp575
(dp576
g184
(lp577
F0.05
aI3
asg179
(lp578
F0.05
aI3
ass(g89
(F9.0
F1.0
g26
tp579
tp580
(dp581
g177
(lp582
F0.005
aI1
asg184
(lp583
F0.9
aI3
ass(g153
(F5.0
F3.0
g39
tp584
tp585
(dp586
g182
(lp587
F0.7
aI4
ass(g115
(F5.0
F3.0
g39
tp588
tp589
(dp590
g182
(lp591
F0.15
aI4
ass(g45
(F7.0
F9.0
g17
tp592
tp593
(dp594
g182
(lp595
F0.7
aI4
ass(g58
(F5.0
F7.0
g17
tp596
tp597
(dp598
g177
(lp599
F0.005
aI1
asg184
(lp600
F0.9
aI3
ass(g152
(F5.0
F5.0
g5
tp601
tp602
(dp603
g189
(lp604
F0.1
aI2
ass(g120
(F1.0
F1.0
g39
tp605
tp606
(dp607
g177
(lp608
F0.99
aI1
asg184
(lp609
F0.05
aI3
asg179
(lp610
F0.05
aI3
ass(g140
(F7.0
F9.0
g5
tp611
tp612
(dp613
g189
(lp614
F0.1
aI2
ass(g139
(F1.0
F3.0
g39
tp615
tp616
(dp617
g177
(lp618
F0.99
aI1
asg184
(lp619
F0.05
aI3
asg179
(lp620
F0.05
aI3
ass(g73
(F7.0
F3.0
g17
tp621
tp622
(dp623
g189
(lp624
F0.1
aI2
ass(g67
(F5.0
F7.0
g26
tp625
tp626
(dp627
g177
(lp628
F0.005
aI1
asg184
(lp629
F0.9
aI3
ass(g111
(F3.0
F7.0
g26
tp630
tp631
(dp632
g177
(lp633
F0.99
aI1
asg184
(lp634
F0.05
aI3
asg179
(lp635
F0.05
aI3
ass(g130
(F7.0
F5.0
g39
tp636
tp637
(dp638
g189
(lp639
F0.15
aI2
ass(g146
(F3.0
F7.0
g39
tp640
tp641
(dp642
g184
(lp643
F0.05
aI3
asg179
(lp644
F0.05
aI3
ass(g154
(F1.0
F1.0
g39
tp645
tp646
(dp647
g177
(lp648
F0.005
aI1
asg184
(lp649
F0.9
aI3
ass(g162
(F1.0
F9.0
g5
tp650
tp651
(dp652
g177
(lp653
F0.005
aI1
asg179
(lp654
F0.9
aI3
ass(g33
(F7.0
F3.0
g5
tp655
tp656
(dp657
g189
(lp658
F0.1
aI2
ass(g18
(F5.0
F1.0
g17
tp659
tp660
(dp661
g189
(lp662
F0.1
aI2
ass(g43
(F3.0
F9.0
g17
tp663
tp664
(dp665
g177
(lp666
F0.005
aI1
asg184
(lp667
F0.9
aI3
ass(g165
(F7.0
F7.0
g26
tp668
tp669
(dp670
g189
(lp671
F0.1
aI2
ass(g139
(F1.0
F3.0
g5
tp672
tp673
(dp674
g177
(lp675
F0.005
aI1
asg184
(lp676
F0.9
aI3
ass(g131
(F7.0
F9.0
g5
tp677
tp678
(dp679
g184
(lp680
F0.05
aI3
asg179
(lp681
F0.05
aI3
ass(g55
(F7.0
F5.0
g39
tp682
tp683
(dp684
g177
(lp685
F0.99
aI1
asg184
(lp686
F0.05
aI3
asg179
(lp687
F0.05
aI3
ass(g166
(F5.0
F1.0
g5
tp688
tp689
(dp690
g177
(lp691
F0.99
aI1
asg184
(lp692
F0.05
aI3
asg179
(lp693
F0.05
aI3
ass(g143
(F3.0
F7.0
g26
tp694
tp695
(dp696
g184
(lp697
F0.05
aI3
asg179
(lp698
F0.05
aI3
ass(g114
(F9.0
F7.0
g17
tp699
tp700
(dp701
g177
(lp702
F0.005
aI1
asg179
(lp703
F0.9
aI3
ass(g151
(F7.0
F7.0
g26
tp704
tp705
(dp706
g177
(lp707
F0.99
aI1
asg184
(lp708
F0.05
aI3
asg179
(lp709
F0.05
aI3
ass(g147
(F7.0
F5.0
g5
tp710
tp711
(dp712
g182
(lp713
F0.15
aI4
ass(g105
(F7.0
F1.0
g39
tp714
tp715
(dp716
g177
(lp717
F0.99
aI1
asg184
(lp718
F0.05
aI3
asg179
(lp719
F0.05
aI3
ass(g130
(F9.0
F5.0
g39
tp720
tp721
(dp722
g189
(lp723
F0.8500000000000001
aI2
ass(g141
(F3.0
F7.0
g39
tp724
tp725
(dp726
g189
(lp727
F0.15
aI2
ass(g33
(F9.0
F5.0
g39
tp728
tp729
(dp730
g177
(lp731
F0.005
aI1
asg179
(lp732
F0.9
aI3
ass(g98
(F1.0
F5.0
g5
tp733
tp734
(dp735
g177
(lp736
F0.99
aI1
asg184
(lp737
F0.05
aI3
asg179
(lp738
F0.05
aI3
ass(g55
(F9.0
F3.0
g39
tp739
tp740
(dp741
g182
(lp742
F0.15
aI4
ass(g58
(F3.0
F9.0
g5
tp743
tp744
(dp745
g189
(lp746
F0.1
aI2
ass(g55
(F7.0
F5.0
g26
tp747
tp748
(dp749
g177
(lp750
F0.005
aI1
asg179
(lp751
F0.9
aI3
ass(g110
(F1.0
F7.0
g5
tp752
tp753
(dp754
g189
(lp755
F0.1
aI2
ass(g60
(F7.0
F3.0
g26
tp756
tp757
(dp758
g177
(lp759
F0.005
aI1
asg179
(lp760
F0.9
aI3
ass(g141
(F1.0
F5.0
g39
tp761
tp762
(dp763
g177
(lp764
F0.99
aI1
asg184
(lp765
F0.05
aI3
asg179
(lp766
F0.05
aI3
ass(g134
(F9.0
F7.0
g5
tp767
tp768
(dp769
g177
(lp770
F0.005
aI1
asg179
(lp771
F0.9
aI3
ass(g118
(F5.0
F1.0
g17
tp772
tp773
(dp774
g189
(lp775
F0.8
aI2
ass(g112
(F7.0
F7.0
g39
tp776
tp777
(dp778
g182
(lp779
F0.15
aI4
ass(g151
(F7.0
F7.0
g5
tp780
tp781
(dp782
g184
(lp783
F0.05
aI3
asg179
(lp784
F0.05
aI3
ass(g48
(F3.0
F3.0
g17
tp785
tp786
(dp787
g184
(lp788
F0.05
aI3
asg179
(lp789
F0.05
aI3
ass(g18
(F3.0
F1.0
g17
tp790
tp791
(dp792
g189
(lp793
F0.8
aI2
ass(g49
(F1.0
F5.0
g17
tp794
tp795
(dp796
g182
(lp797
F0.7749999999999999
aI4
ass(g41
(F3.0
F3.0
g5
tp798
tp799
(dp800
g182
(lp801
F0.7
aI4
ass(g152
(F7.0
F3.0
g39
tp802
tp803
(dp804
g177
(lp805
F0.005
aI1
asg179
(lp806
F0.9
aI3
ass(g154
(F1.0
F1.0
g17
tp807
tp808
(dp809
g177
(lp810
F0.005
aI1
asg179
(lp811
F0.9
aI3
ass(g149
(F3.0
F9.0
g17
tp812
tp813
(dp814
g177
(lp815
F0.005
aI1
asg179
(lp816
F0.9
aI3
ass(g127
(F7.0
F5.0
g5
tp817
tp818
(dp819
g177
(lp820
F0.99
aI1
asg184
(lp821
F0.05
aI3
asg179
(lp822
F0.05
aI3
ass(g143
(F3.0
F7.0
g39
tp823
tp824
(dp825
g177
(lp826
F0.005
aI1
asg179
(lp827
F0.9
aI3
ass(g143
(F3.0
F7.0
g5
tp828
tp829
(dp830
g177
(lp831
F0.99
aI1
asg184
(lp832
F0.05
aI3
asg179
(lp833
F0.05
aI3
ass(g141
(F1.0
F5.0
g5
tp834
tp835
(dp836
g177
(lp837
F0.005
aI1
asg184
(lp838
F0.9
aI3
ass(g118
(F3.0
F1.0
g17
tp839
tp840
(dp841
g189
(lp842
F0.1
aI2
ass(g116
(F1.0
F5.0
g17
tp843
tp844
(dp845
g189
(lp846
F0.8500000000000001
aI2
ass(g70
(F7.0
F1.0
g5
tp847
tp848
(dp849
g189
(lp850
F0.1
aI2
ass(g148
(F3.0
F1.0
g39
tp851
tp852
(dp853
g177
(lp854
F0.99
aI1
asg184
(lp855
F0.05
aI3
asg179
(lp856
F0.05
aI3
ass(g41
(F1.0
F3.0
g5
tp857
tp858
(dp859
g177
(lp860
F0.99
aI1
asg184
(lp861
F0.05
aI3
asg179
(lp862
F0.05
aI3
ass(g90
(F1.0
F9.0
g39
tp863
tp864
(dp865
g189
(lp866
F0.1
aI2
ass(g83
(F7.0
F9.0
g26
tp867
tp868
(dp869
g189
(lp870
F0.8500000000000001
aI2
ass(g113
(F5.0
F3.0
g17
tp871
tp872
(dp873
g182
(lp874
F0.15
aI4
ass(g20
(F3.0
F3.0
g17
tp875
tp876
(dp877
g182
(lp878
F0.15
aI4
ass(g77
(F1.0
F9.0
g26
tp879
tp880
(dp881
g177
(lp882
F0.99
aI1
asg184
(lp883
F0.05
aI3
asg179
(lp884
F0.05
aI3
ass(g57
(F5.0
F7.0
g5
tp885
tp886
(dp887
g189
(lp888
F0.8
aI2
ass(g149
(F5.0
F7.0
g26
tp889
tp890
(dp891
g189
(lp892
F0.15
aI2
ass(g110
(F3.0
F5.0
g39
tp893
tp894
(dp895
g177
(lp896
F0.005
aI1
asg179
(lp897
F0.9
aI3
ass(g33
(F7.0
F7.0
g5
tp898
tp899
(dp900
g189
(lp901
F0.1
aI2
ass(g150
(F7.0
F9.0
g17
tp902
tp903
(dp904
g177
(lp905
F0.99
aI1
asg184
(lp906
F0.05
aI3
asg179
(lp907
F0.05
aI3
ass(g157
(F9.0
F5.0
g17
tp908
tp909
(dp910
g182
(lp911
F0.15
aI4
ass(g166
(F5.0
F1.0
g17
tp912
tp913
(dp914
g177
(lp915
F0.005
aI1
asg184
(lp916
F0.9
aI3
ass(g18
(F3.0
F3.0
g5
tp917
tp918
(dp919
g177
(lp920
F0.005
aI1
asg179
(lp921
F0.9
aI3
ass(g53
(F3.0
F7.0
g39
tp922
tp923
(dp924
g182
(lp925
F0.225
aI4
ass(g155
(F1.0
F9.0
g39
tp926
tp927
(dp928
g189
(lp929
F0.8500000000000001
aI2
ass(g111
(F3.0
F7.0
g5
tp930
tp931
(dp932
g184
(lp933
F0.05
aI3
asg179
(lp934
F0.05
aI3
ass(g123
(F7.0
F3.0
g26
tp935
tp936
(dp937
g177
(lp938
F0.99
aI1
asg184
(lp939
F0.05
aI3
asg179
(lp940
F0.05
aI3
ass(g125
(F1.0
F5.0
g5
tp941
tp942
(dp943
g184
(lp944
F0.05
aI3
asg179
(lp945
F0.05
aI3
ass(g80
(F3.0
F9.0
g26
tp946
tp947
(dp948
g189
(lp949
F0.1
aI2
ass(g118
(F5.0
F3.0
g26
tp950
tp951
(dp952
g177
(lp953
F0.005
aI1
asg184
(lp954
F0.9
aI3
ass(g57
(F7.0
F7.0
g5
tp955
tp956
(dp957
g177
(lp958
F0.99
aI1
asg184
(lp959
F0.05
aI3
asg179
(lp960
F0.05
aI3
ass(g136
(F5.0
F9.0
g5
tp961
tp962
(dp963
g177
(lp964
F0.005
aI1
asg179
(lp965
F0.9
aI3
ass(g125
(F1.0
F5.0
g17
tp966
tp967
(dp968
g177
(lp969
F0.005
aI1
asg179
(lp970
F0.9
aI3
ass(g60
(F7.0
F3.0
g39
tp971
tp972
(dp973
g177
(lp974
F0.99
aI1
asg184
(lp975
F0.05
aI3
asg179
(lp976
F0.05
aI3
ass(g138
(F3.0
F1.0
g26
tp977
tp978
(dp979
g182
(lp980
F0.7749999999999999
aI4
ass(g50
(F7.0
F3.0
g39
tp981
tp982
(dp983
g182
(lp984
F0.225
aI4
ass(g118
(F5.0
F3.0
g39
tp985
tp986
(dp987
g184
(lp988
F0.05
aI3
asg179
(lp989
F0.05
aI3
ass(g103
(F7.0
F5.0
g5
tp990
tp991
(dp992
g184
(lp993
F0.05
aI3
asg179
(lp994
F0.05
aI3
ass(g104
(F5.0
F7.0
g17
tp995
tp996
(dp997
g182
(lp998
F0.15
aI4
ass(g108
(F1.0
F5.0
g17
tp999
tp1000
(dp1001
g177
(lp1002
F0.99
aI1
asg184
(lp1003
F0.05
aI3
asg179
(lp1004
F0.05
aI3
ass(g67
(F7.0
F9.0
g17
tp1005
tp1006
(dp1007
g182
(lp1008
F0.15
aI4
ass(g82
(F7.0
F5.0
g17
tp1009
tp1010
(dp1011
g182
(lp1012
F0.225
aI4
ass(g158
(F7.0
F7.0
g17
tp1013
tp1014
(dp1015
g189
(lp1016
F0.15
aI2
ass(g43
(F3.0
F9.0
g39
tp1017
tp1018
(dp1019
g177
(lp1020
F0.005
aI1
asg179
(lp1021
F0.9
aI3
ass(g119
(F7.0
F1.0
g17
tp1022
tp1023
(dp1024
g177
(lp1025
F0.005
aI1
asg184
(lp1026
F0.9
aI3
ass(g148
(F3.0
F1.0
g17
tp1027
tp1028
(dp1029
g184
(lp1030
F0.05
aI3
asg179
(lp1031
F0.05
aI3
ass(g155
(F3.0
F9.0
g39
tp1032
tp1033
(dp1034
g189
(lp1035
F0.15
aI2
ass(g48
(F3.0
F5.0
g39
tp1036
tp1037
(dp1038
g189
(lp1039
F0.8
aI2
ass(g167
(F7.0
F7.0
g26
tp1040
tp1041
(dp1042
g177
(lp1043
F0.005
aI1
asg179
(lp1044
F0.9
aI3
ass(g6
(F1.0
F9.0
g17
tp1045
tp1046
(dp1047
g177
(lp1048
F0.005
aI1
asg184
(lp1049
F0.9
aI3
ass(g105
(F9.0
F3.0
g39
tp1050
tp1051
(dp1052
g189
(lp1053
F0.1
aI2
ass(g149
(F1.0
F7.0
g26
tp1054
tp1055
(dp1056
g182
(lp1057
F0.225
aI4
ass(g156
(F5.0
F9.0
g5
tp1058
tp1059
(dp1060
g189
(lp1061
F0.8500000000000001
aI2
ass(g116
(F3.0
F9.0
g17
tp1062
tp1063
(dp1064
g182
(lp1065
F0.225
aI4
ass(g90
(F3.0
F7.0
g17
tp1066
tp1067
(dp1068
g184
(lp1069
F0.05
aI3
asg179
(lp1070
F0.05
aI3
ass(g156
(F7.0
F9.0
g26
tp1071
tp1072
(dp1073
g184
(lp1074
F0.05
aI3
asg179
(lp1075
F0.05
aI3
ass(g62
(F5.0
F3.0
g39
tp1076
tp1077
(dp1078
g177
(lp1079
F0.99
aI1
asg184
(lp1080
F0.05
aI3
asg179
(lp1081
F0.05
aI3
ass(g166
(F7.0
F1.0
g5
tp1082
tp1083
(dp1084
g182
(lp1085
F0.7749999999999999
aI4
ass(g154
(F3.0
F3.0
g26
tp1086
tp1087
(dp1088
g189
(lp1089
F0.15
aI2
ass(g67
(F5.0
F9.0
g17
tp1090
tp1091
(dp1092
g182
(lp1093
F0.7
aI4
ass(g126
(F5.0
F5.0
g39
tp1094
tp1095
(dp1096
g182
(lp1097
F0.7
aI4
ass(g115
(F3.0
F5.0
g26
tp1098
tp1099
(dp1100
g177
(lp1101
F0.005
aI1
asg179
(lp1102
F0.9
aI3
ass(g98
(F1.0
F5.0
g17
tp1103
tp1104
(dp1105
g177
(lp1106
F0.005
aI1
asg184
(lp1107
F0.9
aI3
ass(g112
(F5.0
F9.0
g17
tp1108
tp1109
(dp1110
g184
(lp1111
F0.05
aI3
asg179
(lp1112
F0.05
aI3
ass(g128
(F5.0
F9.0
g17
tp1113
tp1114
(dp1115
g177
(lp1116
F0.005
aI1
asg184
(lp1117
F0.9
aI3
ass(g70
(F9.0
F3.0
g17
tp1118
tp1119
(dp1120
g177
(lp1121
F0.005
aI1
asg184
(lp1122
F0.9
aI3
ass(g133
(F7.0
F5.0
g39
tp1123
tp1124
(dp1125
g184
(lp1126
F0.05
aI3
asg179
(lp1127
F0.05
aI3
ass(g109
(F7.0
F3.0
g26
tp1128
tp1129
(dp1130
g189
(lp1131
F0.8
aI2
ass(g151
(F5.0
F5.0
g26
tp1132
tp1133
(dp1134
g182
(lp1135
F0.15
aI4
ass(g105
(F7.0
F1.0
g5
tp1136
tp1137
(dp1138
g177
(lp1139
F0.005
aI1
asg184
(lp1140
F0.9
aI3
ass(g119
(F7.0
F1.0
g26
tp1141
tp1142
(dp1143
g184
(lp1144
F0.05
aI3
asg179
(lp1145
F0.05
aI3
ass(g123
(F7.0
F3.0
g5
tp1146
tp1147
(dp1148
g184
(lp1149
F0.05
aI3
asg179
(lp1150
F0.05
aI3
ass(g75
(F9.0
F3.0
g26
tp1151
tp1152
(dp1153
g189
(lp1154
F0.15
aI2
ass(g136
(F3.0
F7.0
g17
tp1155
tp1156
(dp1157
g189
(lp1158
F0.1
aI2
ass(g118
(F3.0
F5.0
g17
tp1159
tp1160
(dp1161
g182
(lp1162
F0.15
aI4
ass(g139
(F1.0
F1.0
g39
tp1163
tp1164
(dp1165
g182
(lp1166
F0.7749999999999999
aI4
ass(g50
(F9.0
F5.0
g26
tp1167
tp1168
(dp1169
g177
(lp1170
F0.005
aI1
asg179
(lp1171
F0.9
aI3
ass(g48
(F3.0
F3.0
g5
tp1172
tp1173
(dp1174
g177
(lp1175
F0.005
aI1
asg184
(lp1176
F0.9
aI3
ass(g153
(F5.0
F7.0
g39
tp1177
tp1178
(dp1179
g189
(lp1180
F0.8
aI2
ass(g72
(F5.0
F1.0
g5
tp1181
tp1182
(dp1183
g182
(lp1184
F0.15
aI4
ass(g98
(F1.0
F5.0
g26
tp1185
tp1186
(dp1187
g184
(lp1188
F0.05
aI3
asg179
(lp1189
F0.05
aI3
ass(g103
(F9.0
F7.0
g26
tp1190
tp1191
(dp1192
g189
(lp1193
F0.1
aI2
ass(g156
(F7.0
F9.0
g5
tp1194
tp1195
(dp1196
g177
(lp1197
F0.99
aI1
asg184
(lp1198
F0.05
aI3
asg179
(lp1199
F0.05
aI3
ass(g47
(F9.0
F5.0
g17
tp1200
tp1201
(dp1202
g177
(lp1203
F0.99
aI1
asg184
(lp1204
F0.05
aI3
asg179
(lp1205
F0.05
aI3
ass(g27
(F7.0
F1.0
g26
tp1206
tp1207
(dp1208
g182
(lp1209
F0.7749999999999999
aI4
ass(g98
(F3.0
F3.0
g5
tp1210
tp1211
(dp1212
g182
(lp1213
F0.15
aI4
ass(g129
(F1.0
F1.0
g39
tp1214
tp1215
(dp1216
g177
(lp1217
F0.005
aI1
asg179
(lp1218
F0.9
aI3
ass(g67
(F3.0
F9.0
g17
tp1219
tp1220
(dp1221
g182
(lp1222
F0.15
aI4
ass(g113
(F7.0
F1.0
g17
tp1223
tp1224
(dp1225
g177
(lp1226
F0.99
aI1
asg184
(lp1227
F0.05
aI3
asg179
(lp1228
F0.05
aI3
ass(g73
(F3.0
F3.0
g17
tp1229
tp1230
(dp1231
g189
(lp1232
F0.1
aI2
ass(g73
(F5.0
F5.0
g39
tp1233
tp1234
(dp1235
g184
(lp1236
F0.05
aI3
asg179
(lp1237
F0.05
aI3
ass(g117
(F5.0
F7.0
g17
tp1238
tp1239
(dp1240
g177
(lp1241
F0.005
aI1
asg179
(lp1242
F0.9
aI3
ass(g109
(F5.0
F3.0
g39
tp1243
tp1244
(dp1245
g177
(lp1246
F0.005
aI1
asg184
(lp1247
F0.9
aI3
ass(g106
(F9.0
F1.0
g5
tp1248
tp1249
(dp1250
g177
(lp1251
F0.99
aI1
asg184
(lp1252
F0.05
aI3
asg179
(lp1253
F0.05
aI3
ass(g47
(F9.0
F5.0
g5
tp1254
tp1255
(dp1256
g177
(lp1257
F0.005
aI1
asg179
(lp1258
F0.9
aI3
ass(g109
(F3.0
F3.0
g26
tp1259
tp1260
(dp1261
g182
(lp1262
F0.7
aI4
ass(g146
(F5.0
F5.0
g17
tp1263
tp1264
(dp1265
g189
(lp1266
F0.1
aI2
ass(g136
(F5.0
F9.0
g26
tp1267
tp1268
(dp1269
g177
(lp1270
F0.005
aI1
asg184
(lp1271
F0.9
aI3
ass(g135
(F3.0
F7.0
g39
tp1272
tp1273
(dp1274
g182
(lp1275
F0.7
aI4
ass(g110
(F5.0
F3.0
g5
tp1276
tp1277
(dp1278
g182
(lp1279
F0.15
aI4
ass(g60
(F7.0
F3.0
g5
tp1280
tp1281
(dp1282
g177
(lp1283
F0.005
aI1
asg184
(lp1284
F0.9
aI3
ass(g144
(F7.0
F7.0
g26
tp1285
tp1286
(dp1287
g182
(lp1288
F0.15
aI4
ass(g139
(F1.0
F3.0
g26
tp1289
tp1290
(dp1291
g177
(lp1292
F0.005
aI1
asg179
(lp1293
F0.9
aI3
ass(g111
(F3.0
F7.0
g39
tp1294
tp1295
(dp1296
g177
(lp1297
F0.005
aI1
asg184
(lp1298
F0.9
aI3
ass(g128
(F7.0
F9.0
g5
tp1299
tp1300
(dp1301
g182
(lp1302
F0.7749999999999999
aI4
ass(g80
(F3.0
F5.0
g26
tp1303
tp1304
(dp1305
g189
(lp1306
F0.1
aI2
ass(g88
(F3.0
F5.0
g5
tp1307
tp1308
(dp1309
g189
(lp1310
F0.8
aI2
ass(g77
(F1.0
F9.0
g5
tp1311
tp1312
(dp1313
g184
(lp1314
F0.05
aI3
asg179
(lp1315
F0.05
aI3
ass(g165
(F5.0
F5.0
g17
tp1316
tp1317
(dp1318
g177
(lp1319
F0.005
aI1
asg179
(lp1320
F0.9
aI3
ass(g143
(F1.0
F5.0
g5
tp1321
tp1322
(dp1323
g189
(lp1324
F0.1
aI2
ass(g50
(F9.0
F3.0
g39
tp1325
tp1326
(dp1327
g182
(lp1328
F0.7749999999999999
aI4
ass(g156
(F5.0
F7.0
g5
tp1329
tp1330
(dp1331
g189
(lp1332
F0.15
aI2
ass(g122
(F9.0
F3.0
g26
tp1333
tp1334
(dp1335
g177
(lp1336
F0.99
aI1
asg184
(lp1337
F0.05
aI3
asg179
(lp1338
F0.05
aI3
ass(g43
(F3.0
F9.0
g26
tp1339
tp1340
(dp1341
g184
(lp1342
F0.05
aI3
asg179
(lp1343
F0.05
aI3
ass(g75
(F5.0
F1.0
g26
tp1344
tp1345
(dp1346
g182
(lp1347
F0.7749999999999999
aI4
ass(g147
(F5.0
F3.0
g39
tp1348
tp1349
(dp1350
g177
(lp1351
F0.005
aI1
asg179
(lp1352
F0.9
aI3
ass(g141
(F3.0
F3.0
g39
tp1353
tp1354
(dp1355
g182
(lp1356
F0.225
aI4
ass(g117
(F7.0
F7.0
g26
tp1357
tp1358
(dp1359
g189
(lp1360
F0.8
aI2
ass(g138
(F5.0
F1.0
g26
tp1361
tp1362
(dp1363
g177
(lp1364
F0.99
aI1
asg184
(lp1365
F0.05
aI3
asg179
(lp1366
F0.05
aI3
ass(g47
(F9.0
F5.0
g39
tp1367
tp1368
(dp1369
g184
(lp1370
F0.05
aI3
asg179
(lp1371
F0.05
aI3
ass(g157
(F9.0
F1.0
g17
tp1372
tp1373
(dp1374
g189
(lp1375
F0.1
aI2
ass(g155
(F1.0
F7.0
g17
tp1376
tp1377
(dp1378
g184
(lp1379
F0.05
aI3
asg179
(lp1380
F0.05
aI3
ass(g88
(F3.0
F7.0
g5
tp1381
tp1382
(dp1383
g189
(lp1384
F0.1
aI2
ass(g138
(F7.0
F3.0
g26
tp1385
tp1386
(dp1387
g189
(lp1388
F0.15
aI2
ass(g119
(F7.0
F1.0
g5
tp1389
tp1390
(dp1391
g177
(lp1392
F0.99
aI1
asg184
(lp1393
F0.05
aI3
asg179
(lp1394
F0.05
aI3
ass(g55
(F7.0
F5.0
g17
tp1395
tp1396
(dp1397
g184
(lp1398
F0.05
aI3
asg179
(lp1399
F0.05
aI3
ass(g70
(F7.0
F5.0
g5
tp1400
tp1401
(dp1402
g189
(lp1403
F0.1
aI2
ass(g140
(F7.0
F7.0
g5
tp1404
tp1405
(dp1406
g189
(lp1407
F0.8
aI2
ass(g43
(F3.0
F9.0
g5
tp1408
tp1409
(dp1410
g177
(lp1411
F0.99
aI1
asg184
(lp1412
F0.05
aI3
asg179
(lp1413
F0.05
aI3
ass(g161
(F7.0
F9.0
g26
tp1414
tp1415
(dp1416
g177
(lp1417
F0.005
aI1
asg179
(lp1418
F0.9
aI3
ass(g157
(F7.0
F1.0
g17
tp1419
tp1420
(dp1421
g189
(lp1422
F0.8
aI2
ass(g143
(F1.0
F7.0
g5
tp1423
tp1424
(dp1425
g189
(lp1426
F0.8
aI2
ass(g117
(F5.0
F7.0
g5
tp1427
tp1428
(dp1429
g184
(lp1430
F0.05
aI3
asg179
(lp1431
F0.05
aI3
ass(g33
(F9.0
F5.0
g17
tp1432
tp1433
(dp1434
g177
(lp1435
F0.005
aI1
asg184
(lp1436
F0.9
aI3
ass(g62
(F5.0
F3.0
g17
tp1437
tp1438
(dp1439
g184
(lp1440
F0.05
aI3
asg179
(lp1441
F0.05
aI3
ass(g88
(F7.0
F5.0
g5
tp1442
tp1443
(dp1444
g182
(lp1445
F0.7
aI4
ass(g146
(F3.0
F7.0
g17
tp1446
tp1447
(dp1448
g177
(lp1449
F0.99
aI1
asg184
(lp1450
F0.05
aI3
asg179
(lp1451
F0.05
aI3
ass(g165
(F5.0
F5.0
g26
tp1452
tp1453
(dp1454
g177
(lp1455
F0.99
aI1
asg184
(lp1456
F0.05
aI3
asg179
(lp1457
F0.05
aI3
ass(g60
(F7.0
F1.0
g39
tp1458
tp1459
(dp1460
g182
(lp1461
F0.7
aI4
ass(g48
(F5.0
F5.0
g39
tp1462
tp1463
(dp1464
g189
(lp1465
F0.1
aI2
ass(g103
(F9.0
F5.0
g26
tp1466
tp1467
(dp1468
g189
(lp1469
F0.8
aI2
ass(g162
(F1.0
F9.0
g39
tp1470
tp1471
(dp1472
g184
(lp1473
F0.05
aI3
asg179
(lp1474
F0.05
aI3
ass(g49
(F3.0
F5.0
g17
tp1475
tp1476
(dp1477
g182
(lp1478
F0.225
aI4
ass(g57
(F7.0
F7.0
g17
tp1479
tp1480
(dp1481
g177
(lp1482
F0.005
aI1
asg184
(lp1483
F0.9
aI3
ass(g135
(F3.0
F9.0
g39
tp1484
tp1485
(dp1486
g177
(lp1487
F0.99
aI1
asg184
(lp1488
F0.05
aI3
asg179
(lp1489
F0.05
aI3
ass(g134
(F9.0
F7.0
g39
tp1490
tp1491
(dp1492
g184
(lp1493
F0.05
aI3
asg179
(lp1494
F0.05
aI3
ass(g131
(F9.0
F9.0
g26
tp1495
tp1496
(dp1497
g189
(lp1498
F0.8500000000000001
aI2
ass(g33
(F9.0
F5.0
g26
tp1499
tp1500
(dp1501
g184
(lp1502
F0.05
aI3
asg179
(lp1503
F0.05
aI3
ass(g133
(F5.0
F3.0
g17
tp1504
tp1505
(dp1506
g189
(lp1507
F0.1
aI2
ass(g57
(F9.0
F9.0
g5
tp1508
tp1509
(dp1510
g182
(lp1511
F0.15
aI4
ass(g43
(F5.0
F9.0
g5
tp1512
tp1513
(dp1514
g182
(lp1515
F0.7749999999999999
aI4
ass(g113
(F7.0
F1.0
g39
tp1516
tp1517
(dp1518
g184
(lp1519
F0.05
aI3
asg179
(lp1520
F0.05
aI3
ass(g126
(F3.0
F9.0
g39
tp1521
tp1522
(dp1523
g189
(lp1524
F0.1
aI2
ass(g161
(F7.0
F9.0
g39
tp1525
tp1526
(dp1527
g177
(lp1528
F0.99
aI1
asg184
(lp1529
F0.05
aI3
asg179
(lp1530
F0.05
aI3
ass(g73
(F5.0
F5.0
g26
tp1531
tp1532
(dp1533
g177
(lp1534
F0.005
aI1
asg184
(lp1535
F0.9
aI3
ass(g60
(F7.0
F5.0
g39
tp1536
tp1537
(dp1538
g189
(lp1539
F0.8
aI2
ass(g53
(F1.0
F9.0
g5
tp1540
tp1541
(dp1542
g177
(lp1543
F0.005
aI1
asg184
(lp1544
F0.9
aI3
ass(g45
(F9.0
F5.0
g17
tp1545
tp1546
(dp1547
g189
(lp1548
F0.1
aI2
ass(g90
(F5.0
F9.0
g39
tp1549
tp1550
(dp1551
g189
(lp1552
F0.1
aI2
ass(g152
(F7.0
F3.0
g5
tp1553
tp1554
(dp1555
g177
(lp1556
F0.99
aI1
asg184
(lp1557
F0.05
aI3
asg179
(lp1558
F0.05
aI3
ass(g40
(F3.0
F3.0
g39
tp1559
tp1560
(dp1561
g189
(lp1562
F0.1
aI2
ass(g73
(F3.0
F7.0
g17
tp1563
tp1564
(dp1565
g182
(lp1566
F0.15
aI4
ass(g129
(F3.0
F1.0
g5
tp1567
tp1568
(dp1569
g182
(lp1570
F0.7749999999999999
aI4
ass(g68
(F3.0
F1.0
g17
tp1571
tp1572
(dp1573
g177
(lp1574
F0.005
aI1
asg179
(lp1575
F0.9
aI3
ass(g152
(F9.0
F5.0
g5
tp1576
tp1577
(dp1578
g182
(lp1579
F0.15
aI4
ass(g142
(F5.0
F5.0
g26
tp1580
tp1581
(dp1582
g189
(lp1583
F0.1
aI2
ass(g77
(F3.0
F9.0
g26
tp1584
tp1585
(dp1586
g189
(lp1587
F0.8500000000000001
aI2
ass(g149
(F3.0
F9.0
g26
tp1588
tp1589
(dp1590
g177
(lp1591
F0.99
aI1
asg184
(lp1592
F0.05
aI3
asg179
(lp1593
F0.05
aI3
ass(g160
(F7.0
F3.0
g39
tp1594
tp1595
(dp1596
g189
(lp1597
F0.15
aI2
ass(g20
(F5.0
F1.0
g39
tp1598
tp1599
(dp1600
g184
(lp1601
F0.05
aI3
asg179
(lp1602
F0.05
aI3
ass(g40
(F5.0
F1.0
g39
tp1603
tp1604
(dp1605
g177
(lp1606
F0.99
aI1
asg184
(lp1607
F0.05
aI3
asg179
(lp1608
F0.05
aI3
ass(g157
(F7.0
F3.0
g5
tp1609
tp1610
(dp1611
g177
(lp1612
F0.005
aI1
asg179
(lp1613
F0.9
aI3
ass(g127
(F9.0
F5.0
g5
tp1614
tp1615
(dp1616
g182
(lp1617
F0.7
aI4
ass(g152
(F5.0
F1.0
g5
tp1618
tp1619
(dp1620
g189
(lp1621
F0.1
aI2
ass(g109
(F5.0
F3.0
g5
tp1622
tp1623
(dp1624
g184
(lp1625
F0.05
aI3
asg179
(lp1626
F0.05
aI3
ass(g164
(F3.0
F7.0
g5
tp1627
tp1628
(dp1629
g182
(lp1630
F0.7
aI4
ass(g137
(F9.0
F9.0
g5
tp1631
tp1632
(dp1633
g184
(lp1634
F0.05
aI3
asg179
(lp1635
F0.05
aI3
ass(g128
(F7.0
F7.0
g5
tp1636
tp1637
(dp1638
g182
(lp1639
F0.225
aI4
ass(g83
(F3.0
F9.0
g26
tp1640
tp1641
(dp1642
g182
(lp1643
F0.7749999999999999
aI4
ass(g73
(F5.0
F5.0
g17
tp1644
tp1645
(dp1646
g177
(lp1647
F0.99
aI1
asg184
(lp1648
F0.05
aI3
asg179
(lp1649
F0.05
aI3
ass(g131
(F7.0
F9.0
g39
tp1650
tp1651
(dp1652
g177
(lp1653
F0.005
aI1
asg184
(lp1654
F0.9
aI3
ass(g158
(F9.0
F9.0
g17
tp1655
tp1656
(dp1657
g177
(lp1658
F0.99
aI1
asg184
(lp1659
F0.05
aI3
asg179
(lp1660
F0.05
aI3
ass(g136
(F5.0
F9.0
g39
tp1661
tp1662
(dp1663
g184
(lp1664
F0.05
aI3
asg179
(lp1665
F0.05
aI3
ass(g82
(F9.0
F3.0
g5
tp1666
tp1667
(dp1668
g177
(lp1669
F0.005
aI1
asg179
(lp1670
F0.9
aI3
ass(g109
(F5.0
F3.0
g17
tp1671
tp1672
(dp1673
g177
(lp1674
F0.005
aI1
asg179
(lp1675
F0.9
aI3
ass(g73
(F5.0
F7.0
g17
tp1676
tp1677
(dp1678
g182
(lp1679
F0.7
aI4
ass(g55
(F7.0
F7.0
g39
tp1680
tp1681
(dp1682
g189
(lp1683
F0.8
aI2
ass(g127
(F5.0
F7.0
g5
tp1684
tp1685
(dp1686
g189
(lp1687
F0.1
aI2
ass(g20
(F5.0
F3.0
g17
tp1688
tp1689
(dp1690
g182
(lp1691
F0.7
aI4
ass(g82
(F9.0
F3.0
g17
tp1692
tp1693
(dp1694
g177
(lp1695
F0.99
aI1
asg184
(lp1696
F0.05
aI3
asg179
(lp1697
F0.05
aI3
ass(g166
(F5.0
F1.0
g26
tp1698
tp1699
(dp1700
g184
(lp1701
F0.05
aI3
asg179
(lp1702
F0.05
aI3
ass(g48
(F5.0
F1.0
g39
tp1703
tp1704
(dp1705
g182
(lp1706
F0.15
aI4
ass(g67
(F7.0
F5.0
g17
tp1707
tp1708
(dp1709
g189
(lp1710
F0.1
aI2
ass(g18
(F3.0
F3.0
g17
tp1711
tp1712
(dp1713
g177
(lp1714
F0.99
aI1
asg184
(lp1715
F0.05
aI3
asg179
(lp1716
F0.05
aI3
ass(g135
(F3.0
F9.0
g17
tp1717
tp1718
(dp1719
g184
(lp1720
F0.05
aI3
asg179
(lp1721
F0.05
aI3
ass(g45
(F7.0
F7.0
g26
tp1722
tp1723
(dp1724
g177
(lp1725
F0.005
aI1
asg184
(lp1726
F0.9
aI3
ass(g51
(F3.0
F5.0
g39
tp1727
tp1728
(dp1729
g177
(lp1730
F0.005
aI1
asg184
(lp1731
F0.9
aI3
ass(g134
(F9.0
F7.0
g17
tp1732
tp1733
(dp1734
g177
(lp1735
F0.99
aI1
asg184
(lp1736
F0.05
aI3
asg179
(lp1737
F0.05
aI3
ass(g116
(F3.0
F5.0
g17
tp1738
tp1739
(dp1740
g189
(lp1741
F0.15
aI2
ass(g131
(F7.0
F9.0
g26
tp1742
tp1743
(dp1744
g177
(lp1745
F0.99
aI1
asg184
(lp1746
F0.05
aI3
asg179
(lp1747
F0.05
aI3
ass(g107
(F3.0
F5.0
g26
tp1748
tp1749
(dp1750
g189
(lp1751
F0.1
aI2
ass(g55
(F5.0
F3.0
g39
tp1752
tp1753
(dp1754
g182
(lp1755
F0.15
aI4
ass(g128
(F5.0
F9.0
g39
tp1756
tp1757
(dp1758
g177
(lp1759
F0.005
aI1
asg179
(lp1760
F0.9
aI3
ass(g155
(F3.0
F5.0
g39
tp1761
tp1762
(dp1763
g182
(lp1764
F0.225
aI4
ass(g53
(F1.0
F7.0
g39
tp1765
tp1766
(dp1767
g182
(lp1768
F0.7749999999999999
aI4
ass(g157
(F5.0
F5.0
g17
tp1769
tp1770
(dp1771
g182
(lp1772
F0.15
aI4
ass(g149
(F1.0
F9.0
g26
tp1773
tp1774
(dp1775
g182
(lp1776
F0.7749999999999999
aI4
ass(g161
(F7.0
F7.0
g39
tp1777
tp1778
(dp1779
g182
(lp1780
F0.7
aI4
ass(g127
(F9.0
F7.0
g5
tp1781
tp1782
(dp1783
g182
(lp1784
F0.15
aI4
ass(g123
(F9.0
F3.0
g26
tp1785
tp1786
(dp1787
g189
(lp1788
F0.8
aI2
ass(g164
(F1.0
F7.0
g5
tp1789
tp1790
(dp1791
g177
(lp1792
F0.99
aI1
asg184
(lp1793
F0.05
aI3
asg179
(lp1794
F0.05
aI3
ass(g103
(F5.0
F7.0
g26
tp1795
tp1796
(dp1797
g182
(lp1798
F0.15
aI4
ass(g108
(F3.0
F3.0
g17
tp1799
tp1800
(dp1801
g189
(lp1802
F0.15
aI2
ass(g126
(F3.0
F5.0
g39
tp1803
tp1804
(dp1805
g182
(lp1806
F0.15
aI4
ass(g114
(F7.0
F9.0
g26
tp1807
tp1808
(dp1809
g182
(lp1810
F0.15
aI4
ass(g141
(F1.0
F7.0
g39
tp1811
tp1812
(dp1813
g189
(lp1814
F0.8500000000000001
aI2
ass(g27
(F9.0
F1.0
g17
tp1815
tp1816
(dp1817
g177
(lp1818
F0.005
aI1
asg179
(lp1819
F0.9
aI3
ass(g115
(F1.0
F7.0
g39
tp1820
tp1821
(dp1822
g189
(lp1823
F0.1
aI2
ass(g78
(F9.0
F7.0
g26
tp1824
tp1825
(dp1826
g177
(lp1827
F0.005
aI1
asg179
(lp1828
F0.9
aI3
ass(g148
(F3.0
F1.0
g26
tp1829
tp1830
(dp1831
g177
(lp1832
F0.005
aI1
asg179
(lp1833
F0.9
aI3
ass(g155
(F1.0
F7.0
g39
tp1834
tp1835
(dp1836
g177
(lp1837
F0.99
aI1
asg184
(lp1838
F0.05
aI3
asg179
(lp1839
F0.05
aI3
ass(g68
(F1.0
F1.0
g26
tp1840
tp1841
(dp1842
g182
(lp1843
F0.7749999999999999
aI4
ass(g153
(F3.0
F7.0
g39
tp1844
tp1845
(dp1846
g189
(lp1847
F0.1
aI2
ass(g159
(F1.0
F3.0
g5
tp1848
tp1849
(dp1850
g189
(lp1851
F0.15
aI2
ass(g88
(F5.0
F5.0
g17
tp1852
tp1853
(dp1854
g177
(lp1855
F0.005
aI1
asg184
(lp1856
F0.9
aI3
ass(g111
(F5.0
F9.0
g26
tp1857
tp1858
(dp1859
g189
(lp1860
F0.1
aI2
ass(g107
(F1.0
F3.0
g5
tp1861
tp1862
(dp1863
g184
(lp1864
F0.05
aI3
asg179
(lp1865
F0.05
aI3
ass(g114
(F9.0
F7.0
g26
tp1866
tp1867
(dp1868
g177
(lp1869
F0.99
aI1
asg184
(lp1870
F0.05
aI3
asg179
(lp1871
F0.05
aI3
ass(g6
(F3.0
F7.0
g5
tp1872
tp1873
(dp1874
g182
(lp1875
F0.225
aI4
ass(g159
(F3.0
F1.0
g26
tp1876
tp1877
(dp1878
g184
(lp1879
F0.05
aI3
asg179
(lp1880
F0.05
aI3
ass(g98
(F3.0
F5.0
g5
tp1881
tp1882
(dp1883
g182
(lp1884
F0.7
aI4
ass(g104
(F3.0
F5.0
g17
tp1885
tp1886
(dp1887
g177
(lp1888
F0.99
aI1
asg184
(lp1889
F0.05
aI3
asg179
(lp1890
F0.05
aI3
ass(g112
(F5.0
F7.0
g39
tp1891
tp1892
(dp1893
g182
(lp1894
F0.7
aI4
ass(g152
(F9.0
F1.0
g5
tp1895
tp1896
(dp1897
g182
(lp1898
F0.15
aI4
ass(g115
(F3.0
F7.0
g39
tp1899
tp1900
(dp1901
g189
(lp1902
F0.8
aI2
ass(g127
(F5.0
F3.0
g5
tp1903
tp1904
(dp1905
g189
(lp1906
F0.1
aI2
ass(g134
(F7.0
F5.0
g17
tp1907
tp1908
(dp1909
g189
(lp1910
F0.15
aI2
ass(g122
(F9.0
F3.0
g5
tp1911
tp1912
(dp1913
g184
(lp1914
F0.05
aI3
asg179
(lp1915
F0.05
aI3
ass(g72
(F3.0
F3.0
g5
tp1916
tp1917
(dp1918
g177
(lp1919
F0.99
aI1
asg184
(lp1920
F0.05
aI3
asg179
(lp1921
F0.05
aI3
ass(g117
(F3.0
F9.0
g26
tp1922
tp1923
(dp1924
g182
(lp1925
F0.15
aI4
ass(g161
(F7.0
F9.0
g17
tp1926
tp1927
(dp1928
g184
(lp1929
F0.05
aI3
asg179
(lp1930
F0.05
aI3
ass(g80
(F1.0
F7.0
g26
tp1931
tp1932
(dp1933
g177
(lp1934
F0.99
aI1
asg184
(lp1935
F0.05
aI3
asg179
(lp1936
F0.05
aI3
ass(g140
(F7.0
F5.0
g5
tp1937
tp1938
(dp1939
g189
(lp1940
F0.1
aI2
ass(g98
(F1.0
F5.0
g39
tp1941
tp1942
(dp1943
g177
(lp1944
F0.005
aI1
asg179
(lp1945
F0.9
aI3
ass(g163
(F9.0
F9.0
g5
tp1946
tp1947
(dp1948
g177
(lp1949
F0.99
aI1
asg184
(lp1950
F0.05
aI3
asg179
(lp1951
F0.05
aI3
ass(g47
(F7.0
F7.0
g17
tp1952
tp1953
(dp1954
g182
(lp1955
F0.225
aI4
ass(g50
(F9.0
F5.0
g39
tp1956
tp1957
(dp1958
g177
(lp1959
F0.99
aI1
asg184
(lp1960
F0.05
aI3
asg179
(lp1961
F0.05
aI3
ass(g105
(F7.0
F3.0
g39
tp1962
tp1963
(dp1964
g189
(lp1965
F0.8
aI2
ass(g114
(F9.0
F7.0
g39
tp1966
tp1967
(dp1968
g177
(lp1969
F0.005
aI1
asg184
(lp1970
F0.9
aI3
ass(g58
(F3.0
F7.0
g5
tp1971
tp1972
(dp1973
g189
(lp1974
F0.8
aI2
ass(g126
(F7.0
F5.0
g39
tp1975
tp1976
(dp1977
g182
(lp1978
F0.15
aI4
ass(g104
(F3.0
F5.0
g39
tp1979
tp1980
(dp1981
g184
(lp1982
F0.05
aI3
asg179
(lp1983
F0.05
aI3
ass(g139
(F3.0
F1.0
g39
tp1984
tp1985
(dp1986
g182
(lp1987
F0.225
aI4
ass(g62
(F7.0
F1.0
g39
tp1988
tp1989
(dp1990
g182
(lp1991
F0.15
aI4
ass(g149
(F3.0
F9.0
g5
tp1992
tp1993
(dp1994
g184
(lp1995
F0.05
aI3
asg179
(lp1996
F0.05
aI3
ass(g158
(F9.0
F9.0
g39
tp1997
tp1998
(dp1999
g184
(lp2000
F0.05
aI3
asg179
(lp2001
F0.05
aI3
ass(g160
(F9.0
F1.0
g17
tp2002
tp2003
(dp2004
g184
(lp2005
F0.05
aI3
asg179
(lp2006
F0.05
aI3
ass(g80
(F1.0
F7.0
g17
tp2007
tp2008
(dp2009
g177
(lp2010
F0.005
aI1
asg179
(lp2011
F0.9
aI3
ass(g110
(F3.0
F5.0
g5
tp2012
tp2013
(dp2014
g177
(lp2015
F0.99
aI1
asg184
(lp2016
F0.05
aI3
asg179
(lp2017
F0.05
aI3
ass(g164
(F1.0
F7.0
g17
tp2018
tp2019
(dp2020
g177
(lp2021
F0.005
aI1
asg184
(lp2022
F0.9
aI3
ass(g113
(F9.0
F3.0
g17
tp2023
tp2024
(dp2025
g182
(lp2026
F0.15
aI4
ass(g124
(F1.0
F1.0
g17
tp2027
tp2028
(dp2029
g177
(lp2030
F0.99
aI1
asg184
(lp2031
F0.05
aI3
asg179
(lp2032
F0.05
aI3
ass(g90
(F3.0
F7.0
g26
tp2033
tp2034
(dp2035
g177
(lp2036
F0.005
aI1
asg179
(lp2037
F0.9
aI3
ass(g88
(F7.0
F3.0
g5
tp2038
tp2039
(dp2040
g182
(lp2041
F0.15
aI4
ass(g148
(F5.0
F3.0
g39
tp2042
tp2043
(dp2044
g189
(lp2045
F0.1
aI2
ass(g40
(F7.0
F3.0
g39
tp2046
tp2047
(dp2048
g189
(lp2049
F0.1
aI2
ass(g157
(F7.0
F3.0
g26
tp2050
tp2051
(dp2052
g177
(lp2053
F0.005
aI1
asg184
(lp2054
F0.9
aI3
ass(g73
(F5.0
F5.0
g5
tp2055
tp2056
(dp2057
g177
(lp2058
F0.005
aI1
asg179
(lp2059
F0.9
aI3
ass(g78
(F9.0
F7.0
g17
tp2060
tp2061
(dp2062
g184
(lp2063
F0.05
aI3
asg179
(lp2064
F0.05
aI3
ass(g48
(F1.0
F1.0
g39
tp2065
tp2066
(dp2067
g182
(lp2068
F0.15
aI4
ass(g131
(F5.0
F7.0
g26
tp2069
tp2070
(dp2071
g182
(lp2072
F0.225
aI4
ass(g110
(F5.0
F7.0
g5
tp2073
tp2074
(dp2075
g182
(lp2076
F0.15
aI4
ass(g49
(F1.0
F3.0
g26
tp2077
tp2078
(dp2079
g177
(lp2080
F0.005
aI1
asg184
(lp2081
F0.9
aI3
ass(g145
(F3.0
F1.0
g5
tp2082
tp2083
(dp2084
g177
(lp2085
F0.005
aI1
asg179
(lp2086
F0.9
aI3
ass(g130
(F9.0
F1.0
g39
tp2087
tp2088
(dp2089
g182
(lp2090
F0.7749999999999999
aI4
ass(g90
(F3.0
F7.0
g39
tp2091
tp2092
(dp2093
g177
(lp2094
F0.99
aI1
asg184
(lp2095
F0.05
aI3
asg179
(lp2096
F0.05
aI3
ass(g57
(F5.0
F9.0
g5
tp2097
tp2098
(dp2099
g189
(lp2100
F0.1
aI2
ass(g165
(F3.0
F5.0
g26
tp2101
tp2102
(dp2103
g182
(lp2104
F0.7
aI4
ass(g6
(F1.0
F9.0
g26
tp2105
tp2106
(dp2107
g184
(lp2108
F0.05
aI3
asg179
(lp2109
F0.05
aI3
ass(g139
(F1.0
F3.0
g17
tp2110
tp2111
(dp2112
g184
(lp2113
F0.05
aI3
asg179
(lp2114
F0.05
aI3
ass(g151
(F9.0
F7.0
g26
tp2115
tp2116
(dp2117
g189
(lp2118
F0.8
aI2
ass(g51
(F1.0
F3.0
g26
tp2119
tp2120
(dp2121
g182
(lp2122
F0.15
aI4
ass(g92
(F9.0
F9.0
g39
tp2123
tp2124
(dp2125
g177
(lp2126
F0.99
aI1
asg184
(lp2127
F0.05
aI3
asg179
(lp2128
F0.05
aI3
ass(g108
(F3.0
F7.0
g17
tp2129
tp2130
(dp2131
g182
(lp2132
F0.225
aI4
ass(g153
(F7.0
F3.0
g39
tp2133
tp2134
(dp2135
g182
(lp2136
F0.15
aI4
ass(g110
(F1.0
F3.0
g5
tp2137
tp2138
(dp2139
g189
(lp2140
F0.1
aI2
ass(g167
(F5.0
F9.0
g39
tp2141
tp2142
(dp2143
g189
(lp2144
F0.1
aI2
ass(g47
(F9.0
F5.0
g26
tp2145
tp2146
(dp2147
g177
(lp2148
F0.005
aI1
asg184
(lp2149
F0.9
aI3
ass(g107
(F3.0
F1.0
g26
tp2150
tp2151
(dp2152
g189
(lp2153
F0.1
aI2
ass(g126
(F5.0
F7.0
g39
tp2154
tp2155
(dp2156
g177
(lp2157
F0.99
aI1
asg184
(lp2158
F0.05
aI3
asg179
(lp2159
F0.05
aI3
ass(g88
(F5.0
F5.0
g39
tp2160
tp2161
(dp2162
g177
(lp2163
F0.005
aI1
asg179
(lp2164
F0.9
aI3
ass(g90
(F3.0
F9.0
g39
tp2165
tp2166
(dp2167
g189
(lp2168
F0.8
aI2
ass(g115
(F3.0
F5.0
g5
tp2169
tp2170
(dp2171
g177
(lp2172
F0.005
aI1
asg184
(lp2173
F0.9
aI3
ass(g148
(F1.0
F3.0
g39
tp2174
tp2175
(dp2176
g189
(lp2177
F0.1
aI2
ass(g127
(F7.0
F5.0
g26
tp2178
tp2179
(dp2180
g184
(lp2181
F0.05
aI3
asg179
(lp2182
F0.05
aI3
ass(g75
(F7.0
F1.0
g17
tp2183
tp2184
(dp2185
g177
(lp2186
F0.005
aI1
asg179
(lp2187
F0.9
aI3
ass(g62
(F7.0
F5.0
g39
tp2188
tp2189
(dp2190
g189
(lp2191
F0.1
aI2
ass(g83
(F5.0
F9.0
g39
tp2192
tp2193
(dp2194
g177
(lp2195
F0.005
aI1
asg184
(lp2196
F0.9
aI3
ass(g90
(F1.0
F5.0
g39
tp2197
tp2198
(dp2199
g182
(lp2200
F0.15
aI4
ass(g72
(F1.0
F1.0
g5
tp2201
tp2202
(dp2203
g189
(lp2204
F0.1
aI2
ass(g118
(F5.0
F3.0
g17
tp2205
tp2206
(dp2207
g177
(lp2208
F0.99
aI1
asg184
(lp2209
F0.05
aI3
asg179
(lp2210
F0.05
aI3
ass(g162
(F1.0
F9.0
g17
tp2211
tp2212
(dp2213
g177
(lp2214
F0.99
aI1
asg184
(lp2215
F0.05
aI3
asg179
(lp2216
F0.05
aI3
ass(g106
(F9.0
F1.0
g17
tp2217
tp2218
(dp2219
g177
(lp2220
F0.005
aI1
asg184
(lp2221
F0.9
aI3
ass(g104
(F3.0
F7.0
g17
tp2222
tp2223
(dp2224
g182
(lp2225
F0.7
aI4
ass(g157
(F7.0
F3.0
g17
tp2226
tp2227
(dp2228
g177
(lp2229
F0.99
aI1
asg184
(lp2230
F0.05
aI3
asg179
(lp2231
F0.05
aI3
ass(g131
(F9.0
F7.0
g26
tp2232
tp2233
(dp2234
g189
(lp2235
F0.15
aI2
ass(g166
(F7.0
F3.0
g5
tp2236
tp2237
(dp2238
g182
(lp2239
F0.225
aI4
ass(g6
(F1.0
F9.0
g5
tp2240
tp2241
(dp2242
g177
(lp2243
F0.99
aI1
asg184
(lp2244
F0.05
aI3
asg179
(lp2245
F0.05
aI3
ass(g60
(F9.0
F1.0
g39
tp2246
tp2247
(dp2248
g182
(lp2249
F0.15
aI4
ass(g113
(F7.0
F1.0
g26
tp2250
tp2251
(dp2252
g177
(lp2253
F0.005
aI1
asg184
(lp2254
F0.9
aI3
ass(g158
(F9.0
F7.0
g17
tp2255
tp2256
(dp2257
g189
(lp2258
F0.8500000000000001
aI2
ass(g6
(F3.0
F9.0
g5
tp2259
tp2260
(dp2261
g182
(lp2262
F0.7749999999999999
aI4
ass(g155
(F1.0
F7.0
g5
tp2263
tp2264
(dp2265
g177
(lp2266
F0.005
aI1
asg184
(lp2267
F0.9
aI3
ass(g161
(F9.0
F7.0
g39
tp2268
tp2269
(dp2270
g182
(lp2271
F0.15
aI4
ass(g113
(F7.0
F3.0
g17
tp2272
tp2273
(dp2274
g182
(lp2275
F0.7
aI4
ass(g92
(F9.0
F7.0
g39
tp2276
tp2277
(dp2278
g182
(lp2279
F0.7749999999999999
aI4
ass(g108
(F1.0
F3.0
g17
tp2280
tp2281
(dp2282
g189
(lp2283
F0.8500000000000001
aI2
ass(g126
(F7.0
F9.0
g39
tp2284
tp2285
(dp2286
g189
(lp2287
F0.1
aI2
ass(g142
(F3.0
F3.0
g5
tp2288
tp2289
(dp2290
g184
(lp2291
F0.05
aI3
asg179
(lp2292
F0.05
aI3
ass(g160
(F9.0
F1.0
g39
tp2293
tp2294
(dp2295
g177
(lp2296
F0.99
aI1
asg184
(lp2297
F0.05
aI3
asg179
(lp2298
F0.05
aI3
ass(g110
(F5.0
F5.0
g5
tp2299
tp2300
(dp2301
g182
(lp2302
F0.7
aI4
ass(g150
(F7.0
F9.0
g26
tp2303
tp2304
(dp2305
g177
(lp2306
F0.005
aI1
asg184
(lp2307
F0.9
aI3
ass(g90
(F3.0
F7.0
g5
tp2308
tp2309
(dp2310
g177
(lp2311
F0.005
aI1
asg184
(lp2312
F0.9
aI3
ass(g27
(F7.0
F3.0
g26
tp2313
tp2314
(dp2315
g182
(lp2316
F0.225
aI4
ass(g137
(F9.0
F9.0
g26
tp2317
tp2318
(dp2319
g177
(lp2320
F0.99
aI1
asg184
(lp2321
F0.05
aI3
asg179
(lp2322
F0.05
aI3
ass(g165
(F7.0
F3.0
g26
tp2323
tp2324
(dp2325
g189
(lp2326
F0.1
aI2
ass(g88
(F7.0
F7.0
g5
tp2327
tp2328
(dp2329
g182
(lp2330
F0.15
aI4
ass(g122
(F7.0
F3.0
g26
tp2331
tp2332
(dp2333
g182
(lp2334
F0.7
aI4
ass(g146
(F1.0
F5.0
g17
tp2335
tp2336
(dp2337
g189
(lp2338
F0.1
aI2
ass(g72
(F1.0
F5.0
g5
tp2339
tp2340
(dp2341
g189
(lp2342
F0.1
aI2
ass(g53
(F1.0
F9.0
g17
tp2343
tp2344
(dp2345
g184
(lp2346
F0.05
aI3
asg179
(lp2347
F0.05
aI3
ass(g145
(F3.0
F3.0
g17
tp2348
tp2349
(dp2350
g182
(lp2351
F0.7
aI4
ass(g137
(F7.0
F7.0
g26
tp2352
tp2353
(dp2354
g182
(lp2355
F0.225
aI4
ass(g116
(F1.0
F9.0
g17
tp2356
tp2357
(dp2358
g182
(lp2359
F0.7749999999999999
aI4
ass(g90
(F3.0
F5.0
g39
tp2360
tp2361
(dp2362
g182
(lp2363
F0.7
aI4
ass(g111
(F3.0
F7.0
g17
tp2364
tp2365
(dp2366
g177
(lp2367
F0.005
aI1
asg179
(lp2368
F0.9
aI3
ass(g141
(F1.0
F5.0
g26
tp2369
tp2370
(dp2371
g177
(lp2372
F0.005
aI1
asg179
(lp2373
F0.9
aI3
ass(g141
(F1.0
F5.0
g17
tp2374
tp2375
(dp2376
g184
(lp2377
F0.05
aI3
asg179
(lp2378
F0.05
aI3
ass(g147
(F7.0
F3.0
g5
tp2379
tp2380
(dp2381
g182
(lp2382
F0.7
aI4
ass(g139
(F3.0
F5.0
g39
tp2383
tp2384
(dp2385
g189
(lp2386
F0.15
aI2
ass(g167
(F7.0
F9.0
g39
tp2387
tp2388
(dp2389
g189
(lp2390
F0.8
aI2
ass(g41
(F1.0
F3.0
g26
tp2391
tp2392
(dp2393
g184
(lp2394
F0.05
aI3
asg179
(lp2395
F0.05
aI3
ass(g142
(F5.0
F1.0
g26
tp2396
tp2397
(dp2398
g189
(lp2399
F0.1
aI2
ass(g50
(F9.0
F5.0
g17
tp2400
tp2401
(dp2402
g184
(lp2403
F0.05
aI3
asg179
(lp2404
F0.05
aI3
ass(g144
(F9.0
F5.0
g17
tp2405
tp2406
(dp2407
g177
(lp2408
F0.005
aI1
asg179
(lp2409
F0.9
aI3
ass(g20
(F5.0
F1.0
g17
tp2410
tp2411
(dp2412
g177
(lp2413
F0.99
aI1
asg184
(lp2414
F0.05
aI3
asg179
(lp2415
F0.05
aI3
ass(g167
(F7.0
F7.0
g5
tp2416
tp2417
(dp2418
g177
(lp2419
F0.005
aI1
asg184
(lp2420
F0.9
aI3
ass(g151
(F9.0
F9.0
g26
tp2421
tp2422
(dp2423
g189
(lp2424
F0.1
aI2
ass(g54
(F3.0
F9.0
g26
tp2425
tp2426
(dp2427
g177
(lp2428
F0.005
aI1
asg184
(lp2429
F0.9
aI3
ass(g116
(F1.0
F7.0
g26
tp2430
tp2431
(dp2432
g177
(lp2433
F0.005
aI1
asg184
(lp2434
F0.9
aI3
ass(g45
(F7.0
F7.0
g5
tp2435
tp2436
(dp2437
g177
(lp2438
F0.005
aI1
asg179
(lp2439
F0.9
aI3
ass(g120
(F1.0
F1.0
g17
tp2440
tp2441
(dp2442
g184
(lp2443
F0.05
aI3
asg179
(lp2444
F0.05
aI3
ass(g122
(F9.0
F3.0
g17
tp2445
tp2446
(dp2447
g177
(lp2448
F0.005
aI1
asg179
(lp2449
F0.9
aI3
ass(g111
(F5.0
F7.0
g26
tp2450
tp2451
(dp2452
g189
(lp2453
F0.8
aI2
ass(g114
(F7.0
F5.0
g26
tp2454
tp2455
(dp2456
g182
(lp2457
F0.15
aI4
ass(g157
(F7.0
F5.0
g17
tp2458
tp2459
(dp2460
g182
(lp2461
F0.7
aI4
ass(g110
(F3.0
F5.0
g17
tp2462
tp2463
(dp2464
g177
(lp2465
F0.005
aI1
asg184
(lp2466
F0.9
aI3
ass(g41
(F3.0
F1.0
g5
tp2467
tp2468
(dp2469
g182
(lp2470
F0.15
aI4
ass(g120
(F1.0
F1.0
g5
tp2471
tp2472
(dp2473
g177
(lp2474
F0.005
aI1
asg184
(lp2475
F0.9
aI3
ass(g58
(F7.0
F7.0
g5
tp2476
tp2477
(dp2478
g182
(lp2479
F0.7
aI4
ass(g150
(F5.0
F7.0
g17
tp2480
tp2481
(dp2482
g189
(lp2483
F0.1
aI2
ass(g18
(F3.0
F3.0
g26
tp2484
tp2485
(dp2486
g177
(lp2487
F0.005
aI1
asg184
(lp2488
F0.9
aI3
ass(g129
(F3.0
F3.0
g5
tp2489
tp2490
(dp2491
g182
(lp2492
F0.225
aI4
ass(g130
(F9.0
F3.0
g39
tp2493
tp2494
(dp2495
g177
(lp2496
F0.99
aI1
asg184
(lp2497
F0.05
aI3
asg179
(lp2498
F0.05
aI3
ass(g130
(F9.0
F3.0
g26
tp2499
tp2500
(dp2501
g177
(lp2502
F0.005
aI1
asg179
(lp2503
F0.9
aI3
ass(g159
(F3.0
F1.0
g17
tp2504
tp2505
(dp2506
g177
(lp2507
F0.005
aI1
asg184
(lp2508
F0.9
aI3
ass(g90
(F5.0
F5.0
g39
tp2509
tp2510
(dp2511
g182
(lp2512
F0.15
aI4
ass(g60
(F5.0
F1.0
g39
tp2513
tp2514
(dp2515
g182
(lp2516
F0.15
aI4
ass(g136
(F5.0
F9.0
g17
tp2517
tp2518
(dp2519
g177
(lp2520
F0.99
aI1
asg184
(lp2521
F0.05
aI3
asg179
(lp2522
F0.05
aI3
ass(g138
(F5.0
F1.0
g5
tp2523
tp2524
(dp2525
g184
(lp2526
F0.05
aI3
asg179
(lp2527
F0.05
aI3
ass(g142
(F3.0
F3.0
g17
tp2528
tp2529
(dp2530
g177
(lp2531
F0.005
aI1
asg179
(lp2532
F0.9
aI3
ass(g103
(F7.0
F5.0
g26
tp2533
tp2534
(dp2535
g177
(lp2536
F0.99
aI1
asg184
(lp2537
F0.05
aI3
asg179
(lp2538
F0.05
aI3
ass(g123
(F7.0
F3.0
g17
tp2539
tp2540
(dp2541
g177
(lp2542
F0.005
aI1
asg179
(lp2543
F0.9
aI3
ass(g153
(F3.0
F3.0
g39
tp2544
tp2545
(dp2546
g182
(lp2547
F0.15
aI4
ass(g49
(F1.0
F1.0
g17
tp2548
tp2549
(dp2550
g189
(lp2551
F0.8500000000000001
aI2
ass(g41
(F1.0
F3.0
g17
tp2552
tp2553
(dp2554
g177
(lp2555
F0.005
aI1
asg184
(lp2556
F0.9
aI3
ass(g55
(F7.0
F3.0
g39
tp2557
tp2558
(dp2559
g182
(lp2560
F0.7
aI4
ass(g128
(F5.0
F9.0
g26
tp2561
tp2562
(dp2563
g184
(lp2564
F0.05
aI3
asg179
(lp2565
F0.05
aI3
ass(g154
(F1.0
F1.0
g5
tp2566
tp2567
(dp2568
g184
(lp2569
F0.05
aI3
asg179
(lp2570
F0.05
aI3
ass(g146
(F3.0
F9.0
g17
tp2571
tp2572
(dp2573
g182
(lp2574
F0.7
aI4
ass(g82
(F9.0
F1.0
g17
tp2575
tp2576
(dp2577
g189
(lp2578
F0.8500000000000001
aI2
ass(g140
(F9.0
F7.0
g5
tp2579
tp2580
(dp2581
g177
(lp2582
F0.99
aI1
asg184
(lp2583
F0.05
aI3
asg179
(lp2584
F0.05
aI3
ass(g68
(F3.0
F1.0
g39
tp2585
tp2586
(dp2587
g177
(lp2588
F0.005
aI1
asg184
(lp2589
F0.9
aI3
ass(g68
(F5.0
F1.0
g26
tp2590
tp2591
(dp2592
g189
(lp2593
F0.8500000000000001
aI2
ass(g157
(F5.0
F1.0
g17
tp2594
tp2595
(dp2596
g189
(lp2597
F0.1
aI2
ass(g78
(F7.0
F5.0
g39
tp2598
tp2599
(dp2600
g182
(lp2601
F0.225
aI4
ass(g104
(F5.0
F3.0
g17
tp2602
tp2603
(dp2604
g189
(lp2605
F0.1
aI2
ass(g153
(F5.0
F5.0
g26
tp2606
tp2607
(dp2608
g177
(lp2609
F0.005
aI1
asg179
(lp2610
F0.9
aI3
ass(g62
(F5.0
F5.0
g39
tp2611
tp2612
(dp2613
g189
(lp2614
F0.8
aI2
ass(g131
(F7.0
F9.0
g17
tp2615
tp2616
(dp2617
g177
(lp2618
F0.005
aI1
asg179
(lp2619
F0.9
aI3
ass(g153
(F5.0
F5.0
g5
tp2620
tp2621
(dp2622
g177
(lp2623
F0.005
aI1
asg184
(lp2624
F0.9
aI3
ass(g117
(F3.0
F5.0
g26
tp2625
tp2626
(dp2627
g182
(lp2628
F0.15
aI4
ass(g119
(F7.0
F1.0
g39
tp2629
tp2630
(dp2631
g177
(lp2632
F0.005
aI1
asg179
(lp2633
F0.9
aI3
ass(g128
(F5.0
F9.0
g5
tp2634
tp2635
(dp2636
g177
(lp2637
F0.99
aI1
asg184
(lp2638
F0.05
aI3
asg179
(lp2639
F0.05
aI3
ass(g62
(F5.0
F3.0
g5
tp2640
tp2641
(dp2642
g177
(lp2643
F0.005
aI1
asg184
(lp2644
F0.9
aI3
ass(g104
(F1.0
F7.0
g17
tp2645
tp2646
(dp2647
g182
(lp2648
F0.15
aI4
ass(g133
(F9.0
F7.0
g17
tp2649
tp2650
(dp2651
g182
(lp2652
F0.15
aI4
ass(g134
(F9.0
F7.0
g26
tp2653
tp2654
(dp2655
g177
(lp2656
F0.005
aI1
asg184
(lp2657
F0.9
aI3
ass(g125
(F3.0
F7.0
g26
tp2658
tp2659
(dp2660
g189
(lp2661
F0.1
aI2
ass(g92
(F9.0
F9.0
g5
tp2662
tp2663
(dp2664
g177
(lp2665
F0.005
aI1
asg184
(lp2666
F0.9
aI3
ass(g135
(F3.0
F9.0
g26
tp2667
tp2668
(dp2669
g177
(lp2670
F0.005
aI1
asg179
(lp2671
F0.9
aI3
ass(g146
(F1.0
F9.0
g17
tp2672
tp2673
(dp2674
g182
(lp2675
F0.15
aI4
ass(g142
(F1.0
F3.0
g26
tp2676
tp2677
(dp2678
g182
(lp2679
F0.7
aI4
ass(g133
(F5.0
F7.0
g17
tp2680
tp2681
(dp2682
g182
(lp2683
F0.15
aI4
ass(g89
(F9.0
F1.0
g39
tp2684
tp2685
(dp2686
g184
(lp2687
F0.05
aI3
asg179
(lp2688
F0.05
aI3
ass(g116
(F1.0
F7.0
g17
tp2689
tp2690
(dp2691
g177
(lp2692
F0.99
aI1
asg184
(lp2693
F0.05
aI3
asg179
(lp2694
F0.05
aI3
ass(g163
(F7.0
F7.0
g5
tp2695
tp2696
(dp2697
g189
(lp2698
F0.15
aI2
ass(g112
(F5.0
F9.0
g5
tp2699
tp2700
(dp2701
g177
(lp2702
F0.005
aI1
asg184
(lp2703
F0.9
aI3
ass(g62
(F3.0
F5.0
g39
tp2704
tp2705
(dp2706
g189
(lp2707
F0.1
aI2
ass(g133
(F7.0
F7.0
g17
tp2708
tp2709
(dp2710
g182
(lp2711
F0.7
aI4
ass(g118
(F7.0
F5.0
g17
tp2712
tp2713
(dp2714
g182
(lp2715
F0.15
aI4
ass(g111
(F1.0
F9.0
g26
tp2716
tp2717
(dp2718
g182
(lp2719
F0.15
aI4
ass(g83
(F7.0
F7.0
g26
tp2720
tp2721
(dp2722
g189
(lp2723
F0.15
aI2
ass(g140
(F9.0
F7.0
g26
tp2724
tp2725
(dp2726
g184
(lp2727
F0.05
aI3
asg179
(lp2728
F0.05
aI3
ass(g6
(F1.0
F9.0
g39
tp2729
tp2730
(dp2731
g177
(lp2732
F0.005
aI1
asg179
(lp2733
F0.9
aI3
ass(g70
(F9.0
F3.0
g5
tp2734
tp2735
(dp2736
g177
(lp2737
F0.99
aI1
asg184
(lp2738
F0.05
aI3
asg179
(lp2739
F0.05
aI3
ass(g148
(F3.0
F1.0
g5
tp2740
tp2741
(dp2742
g177
(lp2743
F0.005
aI1
asg184
(lp2744
F0.9
aI3
ass(g141
(F1.0
F3.0
g39
tp2745
tp2746
(dp2747
g182
(lp2748
F0.7749999999999999
aI4
ass(g82
(F7.0
F1.0
g17
tp2749
tp2750
(dp2751
g189
(lp2752
F0.15
aI2
ass(g166
(F3.0
F3.0
g5
tp2753
tp2754
(dp2755
g189
(lp2756
F0.15
aI2
ass(g50
(F7.0
F7.0
g39
tp2757
tp2758
(dp2759
g189
(lp2760
F0.15
aI2
ass(g145
(F1.0
F3.0
g17
tp2761
tp2762
(dp2763
g182
(lp2764
F0.15
aI4
ass(g146
(F3.0
F5.0
g17
tp2765
tp2766
(dp2767
g189
(lp2768
F0.8
aI2
ass(g147
(F3.0
F3.0
g5
tp2769
tp2770
(dp2771
g189
(lp2772
F0.8
aI2
ass(g159
(F3.0
F1.0
g39
tp2773
tp2774
(dp2775
g177
(lp2776
F0.005
aI1
asg179
(lp2777
F0.9
aI3
ass(g117
(F7.0
F5.0
g26
tp2778
tp2779
(dp2780
g189
(lp2781
F0.1
aI2
ass(g40
(F5.0
F1.0
g5
tp2782
tp2783
(dp2784
g177
(lp2785
F0.005
aI1
asg184
(lp2786
F0.9
aI3
ass(g164
(F1.0
F7.0
g39
tp2787
tp2788
(dp2789
g177
(lp2790
F0.005
aI1
asg179
(lp2791
F0.9
aI3
ass(g72
(F3.0
F3.0
g17
tp2792
tp2793
(dp2794
g177
(lp2795
F0.005
aI1
asg184
(lp2796
F0.9
aI3
ass(g165
(F7.0
F5.0
g26
tp2797
tp2798
(dp2799
g189
(lp2800
F0.8
aI2
ass(g75
(F7.0
F1.0
g5
tp2801
tp2802
(dp2803
g184
(lp2804
F0.05
aI3
asg179
(lp2805
F0.05
aI3
ass(g72
(F5.0
F5.0
g5
tp2806
tp2807
(dp2808
g182
(lp2809
F0.15
aI4
ass(g80
(F1.0
F7.0
g39
tp2810
tp2811
(dp2812
g177
(lp2813
F0.005
aI1
asg184
(lp2814
F0.9
aI3
ass(g106
(F7.0
F1.0
g5
tp2815
tp2816
(dp2817
g189
(lp2818
F0.8500000000000001
aI2
ass(g142
(F1.0
F5.0
g26
tp2819
tp2820
(dp2821
g182
(lp2822
F0.15
aI4
ass(g18
(F5.0
F5.0
g17
tp2823
tp2824
(dp2825
g182
(lp2826
F0.15
aI4
ass(g77
(F3.0
F7.0
g26
tp2827
tp2828
(dp2829
g189
(lp2830
F0.15
aI2
ass(g73
(F7.0
F7.0
g17
tp2831
tp2832
(dp2833
g182
(lp2834
F0.15
aI4
ass(g120
(F1.0
F1.0
g26
tp2835
tp2836
(dp2837
g177
(lp2838
F0.005
aI1
asg179
(lp2839
F0.9
aI3
ass(g139
(F1.0
F5.0
g39
tp2840
tp2841
(dp2842
g189
(lp2843
F0.8500000000000001
aI2
ass(g115
(F1.0
F3.0
g39
tp2844
tp2845
(dp2846
g182
(lp2847
F0.15
aI4
ass(g117
(F5.0
F7.0
g26
tp2848
tp2849
(dp2850
g177
(lp2851
F0.99
aI1
asg184
(lp2852
F0.05
aI3
asg179
(lp2853
F0.05
aI3
ass(g78
(F9.0
F7.0
g5
tp2854
tp2855
(dp2856
g177
(lp2857
F0.005
aI1
asg184
(lp2858
F0.9
aI3
ass(g123
(F5.0
F1.0
g26
tp2859
tp2860
(dp2861
g182
(lp2862
F0.15
aI4
ass(g49
(F1.0
F3.0
g5
tp2863
tp2864
(dp2865
g177
(lp2866
F0.005
aI1
asg179
(lp2867
F0.9
aI3
ass(g115
(F3.0
F5.0
g17
tp2868
tp2869
(dp2870
g184
(lp2871
F0.05
aI3
asg179
(lp2872
F0.05
aI3
ass(g103
(F5.0
F5.0
g26
tp2873
tp2874
(dp2875
g182
(lp2876
F0.7
aI4
ass(g82
(F9.0
F3.0
g39
tp2877
tp2878
(dp2879
g184
(lp2880
F0.05
aI3
asg179
(lp2881
F0.05
aI3
ass(g50
(F9.0
F5.0
g5
tp2882
tp2883
(dp2884
g177
(lp2885
F0.005
aI1
asg184
(lp2886
F0.9
aI3
ass(g152
(F9.0
F3.0
g5
tp2887
tp2888
(dp2889
g182
(lp2890
F0.7
aI4
ass(g112
(F3.0
F7.0
g39
tp2891
tp2892
(dp2893
g182
(lp2894
F0.15
aI4
ass(g45
(F5.0
F9.0
g17
tp2895
tp2896
(dp2897
g182
(lp2898
F0.15
aI4
ass(g103
(F7.0
F5.0
g39
tp2899
tp2900
(dp2901
g177
(lp2902
F0.005
aI1
asg184
(lp2903
F0.9
aI3
ass(g20
(F5.0
F1.0
g5
tp2904
tp2905
(dp2906
g177
(lp2907
F0.005
aI1
asg179
(lp2908
F0.9
aI3
ass(g127
(F5.0
F5.0
g5
tp2909
tp2910
(dp2911
g189
(lp2912
F0.8
aI2
ass(g72
(F3.0
F3.0
g26
tp2913
tp2914
(dp2915
g184
(lp2916
F0.05
aI3
asg179
(lp2917
F0.05
aI3
ass(g43
(F1.0
F7.0
g5
tp2918
tp2919
(dp2920
g189
(lp2921
F0.15
aI2
ass(g124
(F1.0
F1.0
g26
tp2922
tp2923
(dp2924
g177
(lp2925
F0.005
aI1
asg184
(lp2926
F0.9
aI3
ass(g51
(F5.0
F3.0
g26
tp2927
tp2928
(dp2929
g189
(lp2930
F0.1
aI2
ass(g146
(F5.0
F9.0
g17
tp2931
tp2932
(dp2933
g182
(lp2934
F0.15
aI4
ass(g53
(F1.0
F9.0
g39
tp2935
tp2936
(dp2937
g177
(lp2938
F0.99
aI1
asg184
(lp2939
F0.05
aI3
asg179
(lp2940
F0.05
aI3
ass(g40
(F5.0
F1.0
g26
tp2941
tp2942
(dp2943
g177
(lp2944
F0.005
aI1
asg179
(lp2945
F0.9
aI3
ass(g98
(F3.0
F7.0
g5
tp2946
tp2947
(dp2948
g182
(lp2949
F0.15
aI4
ass(g55
(F5.0
F7.0
g39
tp2950
tp2951
(dp2952
g189
(lp2953
F0.1
aI2
ass(g123
(F7.0
F3.0
g39
tp2954
tp2955
(dp2956
g177
(lp2957
F0.005
aI1
asg184
(lp2958
F0.9
aI3
ass(g58
(F7.0
F9.0
g5
tp2959
tp2960
(dp2961
g182
(lp2962
F0.15
aI4
ass(g40
(F5.0
F1.0
g17
tp2963
tp2964
(dp2965
g184
(lp2966
F0.05
aI3
asg179
(lp2967
F0.05
aI3
ass(g47
(F9.0
F7.0
g17
tp2968
tp2969
(dp2970
g182
(lp2971
F0.7749999999999999
aI4
ass(g144
(F7.0
F3.0
g26
tp2972
tp2973
(dp2974
g182
(lp2975
F0.15
aI4
ass(g147
(F3.0
F1.0
g5
tp2976
tp2977
(dp2978
g189
(lp2979
F0.1
aI2
ass(g51
(F1.0
F7.0
g26
tp2980
tp2981
(dp2982
g182
(lp2983
F0.15
aI4
ass(g62
(F5.0
F3.0
g26
tp2984
tp2985
(dp2986
g177
(lp2987
F0.005
aI1
asg179
(lp2988
F0.9
aI3
ass(g124
(F1.0
F1.0
g5
tp2989
tp2990
(dp2991
g177
(lp2992
F0.005
aI1
asg179
(lp2993
F0.9
aI3
ass(g110
(F3.0
F5.0
g26
tp2994
tp2995
(dp2996
g184
(lp2997
F0.05
aI3
asg179
(lp2998
F0.05
aI3
ass(g145
(F5.0
F3.0
g17
tp2999
tp3000
(dp3001
g182
(lp3002
F0.15
aI4
ass(g104
(F3.0
F5.0
g5
tp3003
tp3004
(dp3005
g177
(lp3006
F0.005
aI1
asg179
(lp3007
F0.9
aI3
ass(g147
(F5.0
F3.0
g5
tp3008
tp3009
(dp3010
g177
(lp3011
F0.99
aI1
asg184
(lp3012
F0.05
aI3
asg179
(lp3013
F0.05
aI3
ass(g134
(F9.0
F5.0
g17
tp3014
tp3015
(dp3016
g189
(lp3017
F0.8500000000000001
aI2
ass(g165
(F3.0
F3.0
g26
tp3018
tp3019
(dp3020
g182
(lp3021
F0.15
aI4
ass(g18
(F3.0
F3.0
g39
tp3022
tp3023
(dp3024
g184
(lp3025
F0.05
aI3
asg179
(lp3026
F0.05
aI3
ass(g123
(F9.0
F5.0
g26
tp3027
tp3028
(dp3029
g189
(lp3030
F0.1
aI2
ass(g140
(F9.0
F7.0
g39
tp3031
tp3032
(dp3033
g177
(lp3034
F0.005
aI1
asg179
(lp3035
F0.9
aI3
ass(g167
(F7.0
F5.0
g39
tp3036
tp3037
(dp3038
g182
(lp3039
F0.7
aI4
ass(g107
(F1.0
F3.0
g26
tp3040
tp3041
(dp3042
g177
(lp3043
F0.99
aI1
asg184
(lp3044
F0.05
aI3
asg179
(lp3045
F0.05
aI3
ass(g115
(F3.0
F3.0
g39
tp3046
tp3047
(dp3048
g182
(lp3049
F0.7
aI4
ass(g150
(F7.0
F7.0
g17
tp3050
tp3051
(dp3052
g189
(lp3053
F0.8
aI2
ass(g127
(F9.0
F3.0
g5
tp3054
tp3055
(dp3056
g182
(lp3057
F0.15
aI4
ass(g40
(F5.0
F3.0
g39
tp3058
tp3059
(dp3060
g189
(lp3061
F0.8
aI2
ass(g130
(F7.0
F1.0
g39
tp3062
tp3063
(dp3064
g182
(lp3065
F0.225
aI4
ass(g72
(F3.0
F3.0
g39
tp3066
tp3067
(dp3068
g177
(lp3069
F0.005
aI1
asg179
(lp3070
F0.9
aI3
ass(g164
(F3.0
F9.0
g5
tp3071
tp3072
(dp3073
g182
(lp3074
F0.15
aI4
ass(g161
(F7.0
F9.0
g5
tp3075
tp3076
(dp3077
g177
(lp3078
F0.005
aI1
asg184
(lp3079
F0.9
aI3
ass(g70
(F9.0
F3.0
g26
tp3080
tp3081
(dp3082
g184
(lp3083
F0.05
aI3
asg179
(lp3084
F0.05
aI3
ass(g18
(F3.0
F5.0
g17
tp3085
tp3086
(dp3087
g182
(lp3088
F0.7
aI4
ass(g77
(F1.0
F9.0
g39
tp3089
tp3090
(dp3091
g177
(lp3092
F0.005
aI1
asg184
(lp3093
F0.9
aI3
ass(g108
(F1.0
F5.0
g26
tp3094
tp3095
(dp3096
g177
(lp3097
F0.005
aI1
asg184
(lp3098
F0.9
aI3
ass(g88
(F3.0
F3.0
g5
tp3099
tp3100
(dp3101
g189
(lp3102
F0.1
aI2
ass(g159
(F5.0
F3.0
g5
tp3103
tp3104
(dp3105
g182
(lp3106
F0.225
aI4
ass(g20
(F7.0
F3.0
g17
tp3107
tp3108
(dp3109
g182
(lp3110
F0.15
aI4
ass(g48
(F3.0
F3.0
g39
tp3111
tp3112
(dp3113
g177
(lp3114
F0.99
aI1
asg184
(lp3115
F0.05
aI3
asg179
(lp3116
F0.05
aI3
ass(g155
(F1.0
F7.0
g26
tp3117
tp3118
(dp3119
g177
(lp3120
F0.005
aI1
asg179
(lp3121
F0.9
aI3
ass(g110
(F1.0
F5.0
g5
tp3122
tp3123
(dp3124
g189
(lp3125
F0.8
aI2
ass(g147
(F3.0
F5.0
g5
tp3126
tp3127
(dp3128
g189
(lp3129
F0.1
aI2
ass(g109
(F7.0
F1.0
g26
tp3130
tp3131
(dp3132
g189
(lp3133
F0.1
aI2
ass(g70
(F7.0
F3.0
g5
tp3134
tp3135
(dp3136
g189
(lp3137
F0.8
aI2
ass(g135
(F5.0
F7.0
g39
tp3138
tp3139
(dp3140
g182
(lp3141
F0.15
aI4
ass(g137
(F7.0
F9.0
g26
tp3142
tp3143
(dp3144
g182
(lp3145
F0.7749999999999999
aI4
ass(g60
(F9.0
F5.0
g39
tp3146
tp3147
(dp3148
g189
(lp3149
F0.1
aI2
ass(g75
(F7.0
F1.0
g26
tp3150
tp3151
(dp3152
g177
(lp3153
F0.99
aI1
asg184
(lp3154
F0.05
aI3
asg179
(lp3155
F0.05
aI3
ass(g72
(F5.0
F3.0
g5
tp3156
tp3157
(dp3158
g182
(lp3159
F0.7
aI4
ass(g124
(F1.0
F1.0
g39
tp3160
tp3161
(dp3162
g184
(lp3163
F0.05
aI3
asg179
(lp3164
F0.05
aI3
ass(g154
(F1.0
F1.0
g26
tp3165
tp3166
(dp3167
g177
(lp3168
F0.99
aI1
asg184
(lp3169
F0.05
aI3
asg179
(lp3170
F0.05
aI3
ass(g72
(F1.0
F3.0
g5
tp3171
tp3172
(dp3173
g189
(lp3174
F0.8
aI2
ass(g135
(F3.0
F9.0
g5
tp3175
tp3176
(dp3177
g177
(lp3178
F0.005
aI1
asg184
(lp3179
F0.9
aI3
ass(g117
(F3.0
F7.0
g26
tp3180
tp3181
(dp3182
g182
(lp3183
F0.7
aI4
ass(g143
(F5.0
F9.0
g5
tp3184
tp3185
(dp3186
g182
(lp3187
F0.15
aI4
ass(g145
(F3.0
F1.0
g26
tp3188
tp3189
(dp3190
g177
(lp3191
F0.005
aI1
asg184
(lp3192
F0.9
aI3
ass(g57
(F9.0
F7.0
g5
tp3193
tp3194
(dp3195
g182
(lp3196
F0.7
aI4
ass(g41
(F3.0
F5.0
g5
tp3197
tp3198
(dp3199
g182
(lp3200
F0.15
aI4
ass(g57
(F5.0
F5.0
g5
tp3201
tp3202
(dp3203
g189
(lp3204
F0.1
aI2
ass(g137
(F9.0
F9.0
g17
tp3205
tp3206
(dp3207
g177
(lp3208
F0.005
aI1
asg179
(lp3209
F0.9
aI3
ass(g133
(F9.0
F3.0
g17
tp3210
tp3211
(dp3212
g189
(lp3213
F0.1
aI2
ass(g150
(F9.0
F7.0
g17
tp3214
tp3215
(dp3216
g189
(lp3217
F0.1
aI2
ass(g57
(F9.0
F5.0
g5
tp3218
tp3219
(dp3220
g182
(lp3221
F0.15
aI4
ass(g123
(F5.0
F3.0
g26
tp3222
tp3223
(dp3224
g182
(lp3225
F0.7
aI4
ass(g156
(F9.0
F7.0
g5
tp3226
tp3227
(dp3228
g182
(lp3229
F0.225
aI4
ass(g83
(F3.0
F7.0
g26
tp3230
tp3231
(dp3232
g182
(lp3233
F0.225
aI4
ass(g113
(F7.0
F1.0
g5
tp3234
tp3235
(dp3236
g177
(lp3237
F0.005
aI1
asg179
(lp3238
F0.9
aI3
ass(g105
(F5.0
F3.0
g39
tp3239
tp3240
(dp3241
g189
(lp3242
F0.1
aI2
ass(g109
(F5.0
F3.0
g26
tp3243
tp3244
(dp3245
g177
(lp3246
F0.99
aI1
asg184
(lp3247
F0.05
aI3
asg179
(lp3248
F0.05
aI3
ass(g103
(F5.0
F3.0
g26
tp3249
tp3250
(dp3251
g182
(lp3252
F0.15
aI4
ass(g142
(F3.0
F3.0
g39
tp3253
tp3254
(dp3255
g177
(lp3256
F0.005
aI1
asg184
(lp3257
F0.9
aI3
ass(g159
(F1.0
F1.0
g5
tp3258
tp3259
(dp3260
g189
(lp3261
F0.8500000000000001
aI2
ass(g88
(F5.0
F5.0
g5
tp3262
tp3263
(dp3264
g177
(lp3265
F0.99
aI1
asg184
(lp3266
F0.05
aI3
asg179
(lp3267
F0.05
aI3
ass(g75
(F9.0
F1.0
g26
tp3268
tp3269
(dp3270
g189
(lp3271
F0.8500000000000001
aI2
ass(g48
(F3.0
F3.0
g26
tp3272
tp3273
(dp3274
g177
(lp3275
F0.005
aI1
asg179
(lp3276
F0.9
aI3
ass(g138
(F5.0
F1.0
g17
tp3277
tp3278
(dp3279
g177
(lp3280
F0.005
aI1
asg179
(lp3281
F0.9
aI3
ass(g33
(F9.0
F5.0
g5
tp3282
tp3283
(dp3284
g177
(lp3285
F0.99
aI1
asg184
(lp3286
F0.05
aI3
asg179
(lp3287
F0.05
aI3
ass(g163
(F9.0
F9.0
g26
tp3288
tp3289
(dp3290
g184
(lp3291
F0.05
aI3
asg179
(lp3292
F0.05
aI3
ass(g125
(F1.0
F5.0
g26
tp3293
tp3294
(dp3295
g177
(lp3296
F0.99
aI1
asg184
(lp3297
F0.05
aI3
asg179
(lp3298
F0.05
aI3
ass(g41
(F1.0
F3.0
g39
tp3299
tp3300
(dp3301
g177
(lp3302
F0.005
aI1
asg179
(lp3303
F0.9
aI3
ass(g20
(F5.0
F1.0
g26
tp3304
tp3305
(dp3306
g177
(lp3307
F0.005
aI1
asg184
(lp3308
F0.9
aI3
ass(g18
(F1.0
F5.0
g17
tp3309
tp3310
(dp3311
g182
(lp3312
F0.15
aI4
ass(g108
(F1.0
F5.0
g5
tp3313
tp3314
(dp3315
g177
(lp3316
F0.005
aI1
asg179
(lp3317
F0.9
aI3
ass(g83
(F5.0
F9.0
g26
tp3318
tp3319
(dp3320
g177
(lp3321
F0.99
aI1
asg184
(lp3322
F0.05
aI3
asg179
(lp3323
F0.05
aI3
ass(g167
(F7.0
F7.0
g39
tp3324
tp3325
(dp3326
g177
(lp3327
F0.99
aI1
asg184
(lp3328
F0.05
aI3
asg179
(lp3329
F0.05
aI3
ass(g67
(F5.0
F7.0
g39
tp3330
tp3331
(dp3332
g184
(lp3333
F0.05
aI3
asg179
(lp3334
F0.05
aI3
ass(g78
(F9.0
F9.0
g39
tp3335
tp3336
(dp3337
g189
(lp3338
F0.8500000000000001
aI2
ass(g51
(F1.0
F5.0
g26
tp3339
tp3340
(dp3341
g182
(lp3342
F0.7
aI4
ass(g137
(F9.0
F9.0
g39
tp3343
tp3344
(dp3345
g177
(lp3346
F0.005
aI1
asg184
(lp3347
F0.9
aI3
ass(g135
(F1.0
F7.0
g39
tp3348
tp3349
(dp3350
g182
(lp3351
F0.15
aI4
ass(g43
(F5.0
F7.0
g5
tp3352
tp3353
(dp3354
g182
(lp3355
F0.225
aI4
ass(g127
(F7.0
F5.0
g17
tp3356
tp3357
(dp3358
g177
(lp3359
F0.005
aI1
asg184
(lp3360
F0.9
aI3
ass(g126
(F5.0
F9.0
g39
tp3361
tp3362
(dp3363
g189
(lp3364
F0.8
aI2
ass(g45
(F9.0
F9.0
g17
tp3365
tp3366
(dp3367
g182
(lp3368
F0.15
aI4
ass(g88
(F5.0
F5.0
g26
tp3369
tp3370
(dp3371
g184
(lp3372
F0.05
aI3
asg179
(lp3373
F0.05
aI3
ass(g54
(F3.0
F9.0
g5
tp3374
tp3375
(dp3376
g177
(lp3377
F0.005
aI1
asg179
(lp3378
F0.9
aI3
ass(g131
(F5.0
F9.0
g26
tp3379
tp3380
(dp3381
g182
(lp3382
F0.7749999999999999
aI4
ass(g133
(F7.0
F3.0
g17
tp3383
tp3384
(dp3385
g189
(lp3386
F0.8
aI2
ass(g45
(F5.0
F5.0
g17
tp3387
tp3388
(dp3389
g189
(lp3390
F0.1
aI2
ass(g75
(F7.0
F1.0
g39
tp3391
tp3392
(dp3393
g177
(lp3394
F0.005
aI1
asg184
(lp3395
F0.9
aI3
ass(g125
(F1.0
F5.0
g39
tp3396
tp3397
(dp3398
g177
(lp3399
F0.005
aI1
asg184
(lp3400
F0.9
aI3
ass(g109
(F3.0
F5.0
g26
tp3401
tp3402
(dp3403
g182
(lp3404
F0.15
aI4
ass(g105
(F7.0
F1.0
g17
tp3405
tp3406
(dp3407
g184
(lp3408
F0.05
aI3
asg179
(lp3409
F0.05
aI3
ass(g162
(F1.0
F9.0
g26
tp3410
tp3411
(dp3412
g177
(lp3413
F0.005
aI1
asg184
(lp3414
F0.9
aI3
ass(g124
(F3.0
F3.0
g17
tp3415
tp3416
(dp3417
g182
(lp3418
F0.225
aI4
ass(g167
(F9.0
F5.0
g39
tp3419
tp3420
(dp3421
g182
(lp3422
F0.15
aI4
ass(g58
(F3.0
F5.0
g5
tp3423
tp3424
(dp3425
g189
(lp3426
F0.1
aI2
ass(g103
(F9.0
F3.0
g26
tp3427
tp3428
(dp3429
g189
(lp3430
F0.1
aI2
ass(g163
(F7.0
F9.0
g5
tp3431
tp3432
(dp3433
g189
(lp3434
F0.8500000000000001
aI2
ass(g54
(F1.0
F7.0
g17
tp3435
tp3436
(dp3437
g189
(lp3438
F0.1
aI2
ass(g55
(F9.0
F7.0
g39
tp3439
tp3440
(dp3441
g189
(lp3442
F0.1
aI2
ass(g147
(F5.0
F3.0
g26
tp3443
tp3444
(dp3445
g184
(lp3446
F0.05
aI3
asg179
(lp3447
F0.05
aI3
ass(g54
(F3.0
F7.0
g17
tp3448
tp3449
(dp3450
g189
(lp3451
F0.8
aI2
ass(g60
(F7.0
F3.0
g17
tp3452
tp3453
(dp3454
g184
(lp3455
F0.05
aI3
asg179
(lp3456
F0.05
aI3
ass(g119
(F5.0
F1.0
g5
tp3457
tp3458
(dp3459
g189
(lp3460
F0.8500000000000001
aI2
ass(g133
(F7.0
F5.0
g5
tp3461
tp3462
(dp3463
g177
(lp3464
F0.005
aI1
asg179
(lp3465
F0.9
aI3
ass(g118
(F5.0
F3.0
g5
tp3466
tp3467
(dp3468
g177
(lp3469
F0.005
aI1
asg179
(lp3470
F0.9
aI3
ass(g154
(F3.0
F1.0
g26
tp3471
tp3472
(dp3473
g189
(lp3474
F0.8500000000000001
aI2
ass(g51
(F3.0
F5.0
g5
tp3475
tp3476
(dp3477
g184
(lp3478
F0.05
aI3
asg179
(lp3479
F0.05
aI3
ass(g124
(F1.0
F3.0
g17
tp3480
tp3481
(dp3482
g182
(lp3483
F0.7749999999999999
aI4
ass(g123
(F5.0
F5.0
g26
tp3484
tp3485
(dp3486
g182
(lp3487
F0.15
aI4
ass(g68
(F5.0
F3.0
g26
tp3488
tp3489
(dp3490
g189
(lp3491
F0.15
aI2
ass(g163
(F9.0
F9.0
g39
tp3492
tp3493
(dp3494
g177
(lp3495
F0.005
aI1
asg179
(lp3496
F0.9
aI3
ass(g54
(F5.0
F7.0
g17
tp3497
tp3498
(dp3499
g189
(lp3500
F0.1
aI2
ass(g123
(F9.0
F1.0
g26
tp3501
tp3502
(dp3503
g189
(lp3504
F0.1
aI2
ass(g51
(F3.0
F5.0
g17
tp3505
tp3506
(dp3507
g177
(lp3508
F0.005
aI1
asg179
(lp3509
F0.9
aI3
ass(g117
(F7.0
F9.0
g26
tp3510
tp3511
(dp3512
g189
(lp3513
F0.1
aI2
ass(g126
(F5.0
F7.0
g26
tp3514
tp3515
(dp3516
g177
(lp3517
F0.005
aI1
asg179
(lp3518
F0.9
aI3
ass(g45
(F7.0
F5.0
g17
tp3519
tp3520
(dp3521
g189
(lp3522
F0.8
aI2
ass(g58
(F5.0
F7.0
g5
tp3523
tp3524
(dp3525
g177
(lp3526
F0.99
aI1
asg184
(lp3527
F0.05
aI3
asg179
(lp3528
F0.05
aI3
ass(g58
(F5.0
F7.0
g26
tp3529
tp3530
(dp3531
g184
(lp3532
F0.05
aI3
asg179
(lp3533
F0.05
aI3
ass(g152
(F7.0
F3.0
g17
tp3534
tp3535
(dp3536
g177
(lp3537
F0.005
aI1
asg184
(lp3538
F0.9
aI3
ass(g27
(F9.0
F1.0
g26
tp3539
tp3540
(dp3541
g177
(lp3542
F0.99
aI1
asg184
(lp3543
F0.05
aI3
asg179
(lp3544
F0.05
aI3
ass(g152
(F7.0
F3.0
g26
tp3545
tp3546
(dp3547
g184
(lp3548
F0.05
aI3
asg179
(lp3549
F0.05
aI3
ass(g165
(F5.0
F5.0
g39
tp3550
tp3551
(dp3552
g177
(lp3553
F0.005
aI1
asg184
(lp3554
F0.9
aI3
ass(g144
(F9.0
F5.0
g5
tp3555
tp3556
(dp3557
g184
(lp3558
F0.05
aI3
asg179
(lp3559
F0.05
aI3
ass(g116
(F1.0
F7.0
g39
tp3560
tp3561
(dp3562
g184
(lp3563
F0.05
aI3
asg179
(lp3564
F0.05
aI3
ass(g148
(F3.0
F3.0
g39
tp3565
tp3566
(dp3567
g189
(lp3568
F0.8
aI2
ass(g127
(F7.0
F5.0
g39
tp3569
tp3570
(dp3571
g177
(lp3572
F0.005
aI1
asg179
(lp3573
F0.9
aI3
ass(g112
(F5.0
F9.0
g26
tp3574
tp3575
(dp3576
g177
(lp3577
F0.005
aI1
asg179
(lp3578
F0.9
aI3
ass(g158
(F9.0
F9.0
g5
tp3579
tp3580
(dp3581
g177
(lp3582
F0.005
aI1
asg179
(lp3583
F0.9
aI3
ass(g62
(F3.0
F1.0
g39
tp3584
tp3585
(dp3586
g182
(lp3587
F0.15
aI4
ass(g162
(F1.0
F7.0
g17
tp3588
tp3589
(dp3590
g189
(lp3591
F0.8500000000000001
aI2
ass(g163
(F9.0
F9.0
g17
tp3592
tp3593
(dp3594
g177
(lp3595
F0.005
aI1
asg184
(lp3596
F0.9
aI3
ass(g151
(F7.0
F7.0
g17
tp3597
tp3598
(dp3599
g177
(lp3600
F0.005
aI1
asg179
(lp3601
F0.9
aI3
ass(g119
(F5.0
F3.0
g5
tp3602
tp3603
(dp3604
g189
(lp3605
F0.15
aI2
ass(g57
(F7.0
F7.0
g26
tp3606
tp3607
(dp3608
g184
(lp3609
F0.05
aI3
asg179
(lp3610
F0.05
aI3
ass(g122
(F7.0
F1.0
g26
tp3611
tp3612
(dp3613
g182
(lp3614
F0.15
aI4
ass(g153
(F5.0
F5.0
g17
tp3615
tp3616
(dp3617
g184
(lp3618
F0.05
aI3
asg179
(lp3619
F0.05
aI3
ass(g49
(F1.0
F3.0
g39
tp3620
tp3621
(dp3622
g184
(lp3623
F0.05
aI3
asg179
(lp3624
F0.05
aI3
ass(g51
(F3.0
F5.0
g26
tp3625
tp3626
(dp3627
g177
(lp3628
F0.99
aI1
asg184
(lp3629
F0.05
aI3
asg179
(lp3630
F0.05
aI3
ass(g120
(F1.0
F3.0
g39
tp3631
tp3632
(dp3633
g189
(lp3634
F0.8500000000000001
aI2
ass(g138
(F5.0
F1.0
g39
tp3635
tp3636
(dp3637
g177
(lp3638
F0.005
aI1
asg184
(lp3639
F0.9
aI3
ass(g103
(F7.0
F5.0
g17
tp3640
tp3641
(dp3642
g177
(lp3643
F0.005
aI1
asg179
(lp3644
F0.9
aI3
ass(g122
(F7.0
F5.0
g26
tp3645
tp3646
(dp3647
g182
(lp3648
F0.15
aI4
ass(g128
(F3.0
F9.0
g5
tp3649
tp3650
(dp3651
g189
(lp3652
F0.8500000000000001
aI2
ass(g159
(F3.0
F1.0
g5
tp3653
tp3654
(dp3655
g177
(lp3656
F0.99
aI1
asg184
(lp3657
F0.05
aI3
asg179
(lp3658
F0.05
aI3
ass(g166
(F5.0
F1.0
g39
tp3659
tp3660
(dp3661
g177
(lp3662
F0.005
aI1
asg179
(lp3663
F0.9
aI3
ass(g167
(F9.0
F9.0
g39
tp3664
tp3665
(dp3666
g189
(lp3667
F0.1
aI2
ass(g114
(F7.0
F7.0
g26
tp3668
tp3669
(dp3670
g182
(lp3671
F0.7
aI4
ass(g115
(F5.0
F7.0
g39
tp3672
tp3673
(dp3674
g189
(lp3675
F0.1
aI2
ass(g147
(F5.0
F3.0
g17
tp3676
tp3677
(dp3678
g177
(lp3679
F0.005
aI1
asg184
(lp3680
F0.9
aI3
ass(g146
(F3.0
F7.0
g5
tp3681
tp3682
(dp3683
g177
(lp3684
F0.005
aI1
asg179
(lp3685
F0.9
aI3
ass(g144
(F7.0
F5.0
g26
tp3686
tp3687
(dp3688
g182
(lp3689
F0.7
aI4
ass(g27
(F9.0
F1.0
g5
tp3690
tp3691
(dp3692
g184
(lp3693
F0.05
aI3
asg179
(lp3694
F0.05
aI3
ass(g51
(F5.0
F7.0
g26
tp3695
tp3696
(dp3697
g189
(lp3698
F0.1
aI2
ass(g27
(F9.0
F1.0
g39
tp3699
tp3700
(dp3701
g177
(lp3702
F0.005
aI1
asg184
(lp3703
F0.9
aI3
ass(g67
(F5.0
F5.0
g17
tp3704
tp3705
(dp3706
g189
(lp3707
F0.8
aI2
ass(g54
(F3.0
F9.0
g39
tp3708
tp3709
(dp3710
g184
(lp3711
F0.05
aI3
asg179
(lp3712
F0.05
aI3
ass(g54
(F3.0
F9.0
g17
tp3713
tp3714
(dp3715
g177
(lp3716
F0.99
aI1
asg184
(lp3717
F0.05
aI3
asg179
(lp3718
F0.05
aI3
ass(g156
(F7.0
F9.0
g39
tp3719
tp3720
(dp3721
g177
(lp3722
F0.005
aI1
asg179
(lp3723
F0.9
aI3
ass(g89
(F7.0
F3.0
g17
tp3724
tp3725
(dp3726
g182
(lp3727
F0.225
aI4
ass(g47
(F7.0
F3.0
g17
tp3728
tp3729
(dp3730
g189
(lp3731
F0.15
aI2
ass(g128
(F3.0
F7.0
g5
tp3732
tp3733
(dp3734
g189
(lp3735
F0.15
aI2
ass(g153
(F5.0
F5.0
g39
tp3736
tp3737
(dp3738
g177
(lp3739
F0.99
aI1
asg184
(lp3740
F0.05
aI3
asg179
(lp3741
F0.05
aI3
ass(g89
(F9.0
F1.0
g17
tp3742
tp3743
(dp3744
g177
(lp3745
F0.99
aI1
asg184
(lp3746
F0.05
aI3
asg179
(lp3747
F0.05
aI3
ass(g45
(F7.0
F7.0
g17
tp3748
tp3749
(dp3750
g177
(lp3751
F0.99
aI1
asg184
(lp3752
F0.05
aI3
asg179
(lp3753
F0.05
aI3
ass(g45
(F7.0
F7.0
g39
tp3754
tp3755
(dp3756
g184
(lp3757
F0.05
aI3
asg179
(lp3758
F0.05
aI3
ass(g143
(F1.0
F9.0
g5
tp3759
tp3760
(dp3761
g189
(lp3762
F0.1
aI2
ass(g130
(F9.0
F3.0
g17
tp3763
tp3764
(dp3765
g184
(lp3766
F0.05
aI3
asg179
(lp3767
F0.05
aI3
ass(g133
(F7.0
F5.0
g26
tp3768
tp3769
(dp3770
g177
(lp3771
F0.005
aI1
asg184
(lp3772
F0.9
aI3
ass(g62
(F5.0
F1.0
g39
tp3773
tp3774
(dp3775
g182
(lp3776
F0.7
aI4
ass(g107
(F1.0
F3.0
g39
tp3777
tp3778
(dp3779
g177
(lp3780
F0.005
aI1
asg184
(lp3781
F0.9
aI3
ass(g47
(F9.0
F3.0
g17
tp3782
tp3783
(dp3784
g189
(lp3785
F0.8500000000000001
aI2
ass(g92
(F9.0
F9.0
g26
tp3786
tp3787
(dp3788
g177
(lp3789
F0.005
aI1
asg179
(lp3790
F0.9
aI3
ass(g89
(F9.0
F3.0
g17
tp3791
tp3792
(dp3793
g182
(lp3794
F0.7749999999999999
aI4
ass(g89
(F9.0
F1.0
g5
tp3795
tp3796
(dp3797
g177
(lp3798
F0.005
aI1
asg179
(lp3799
F0.9
aI3
ass(g142
(F3.0
F3.0
g26
tp3800
tp3801
(dp3802
g177
(lp3803
F0.99
aI1
asg184
(lp3804
F0.05
aI3
asg179
(lp3805
F0.05
aI3
ass(g138
(F7.0
F1.0
g26
tp3806
tp3807
(dp3808
g189
(lp3809
F0.8500000000000001
aI2
ass(g119
(F9.0
F1.0
g5
tp3810
tp3811
(dp3812
g182
(lp3813
F0.7749999999999999
aI4
ass(g142
(F1.0
F1.0
g26
tp3814
tp3815
(dp3816
g182
(lp3817
F0.15
aI4
ass(g160
(F9.0
F3.0
g39
tp3818
tp3819
(dp3820
g189
(lp3821
F0.8500000000000001
aI2
ass(g33
(F7.0
F5.0
g5
tp3822
tp3823
(dp3824
g189
(lp3825
F0.8
aI2
ass(g151
(F7.0
F7.0
g39
tp3826
tp3827
(dp3828
g177
(lp3829
F0.005
aI1
asg184
(lp3830
F0.9
aI3
ass(g112
(F5.0
F9.0
g39
tp3831
tp3832
(dp3833
g177
(lp3834
F0.99
aI1
asg184
(lp3835
F0.05
aI3
asg179
(lp3836
F0.05
aI3
ass(g149
(F3.0
F9.0
g39
tp3837
tp3838
(dp3839
g177
(lp3840
F0.005
aI1
asg184
(lp3841
F0.9
aI3
ass(g150
(F7.0
F9.0
g39
tp3842
tp3843
(dp3844
g184
(lp3845
F0.05
aI3
asg179
(lp3846
F0.05
aI3
ass(g75
(F5.0
F3.0
g26
tp3847
tp3848
(dp3849
g182
(lp3850
F0.225
aI4
ass(g164
(F1.0
F7.0
g26
tp3851
tp3852
(dp3853
g184
(lp3854
F0.05
aI3
asg179
(lp3855
F0.05
aI3
ass(g151
(F5.0
F7.0
g26
tp3856
tp3857
(dp3858
g182
(lp3859
F0.7
aI4
ass(g108
(F1.0
F5.0
g39
tp3860
tp3861
(dp3862
g184
(lp3863
F0.05
aI3
asg179
(lp3864
F0.05
aI3
ass(g116
(F1.0
F7.0
g5
tp3865
tp3866
(dp3867
g177
(lp3868
F0.005
aI1
asg179
(lp3869
F0.9
aI3
ass(g147
(F7.0
F1.0
g5
tp3870
tp3871
(dp3872
g182
(lp3873
F0.15
aI4
ass(g125
(F3.0
F5.0
g26
tp3874
tp3875
(dp3876
g189
(lp3877
F0.8
aI2
ass(g151
(F5.0
F9.0
g26
tp3878
tp3879
(dp3880
g182
(lp3881
F0.15
aI4
ass(g104
(F1.0
F3.0
g17
tp3882
tp3883
(dp3884
g189
(lp3885
F0.1
aI2
ass(g60
(F5.0
F5.0
g39
tp3886
tp3887
(dp3888
g189
(lp3889
F0.1
aI2
ass(g73
(F5.0
F3.0
g17
tp3890
tp3891
(dp3892
g189
(lp3893
F0.8
aI2
ass(g105
(F7.0
F1.0
g26
tp3894
tp3895
(dp3896
g177
(lp3897
F0.005
aI1
asg179
(lp3898
F0.9
aI3
ass(g153
(F7.0
F7.0
g39
tp3899
tp3900
(dp3901
g189
(lp3902
F0.1
aI2
ass(g160
(F9.0
F1.0
g5
tp3903
tp3904
(dp3905
g177
(lp3906
F0.005
aI1
asg184
(lp3907
F0.9
aI3
ass(g67
(F3.0
F5.0
g17
tp3908
tp3909
(dp3910
g189
(lp3911
F0.1
aI2
ass(g129
(F1.0
F1.0
g26
tp3912
tp3913
(dp3914
g184
(lp3915
F0.05
aI3
asg179
(lp3916
F0.05
aI3
ass(g106
(F9.0
F1.0
g39
tp3917
tp3918
(dp3919
g177
(lp3920
F0.005
aI1
asg179
(lp3921
F0.9
aI3
ass(g130
(F9.0
F3.0
g5
tp3922
tp3923
(dp3924
g177
(lp3925
F0.005
aI1
asg184
(lp3926
F0.9
aI3
ass(g111
(F1.0
F5.0
g26
tp3927
tp3928
(dp3929
g182
(lp3930
F0.15
aI4
ass(g145
(F3.0
F1.0
g17
tp3931
tp3932
(dp3933
g177
(lp3934
F0.99
aI1
asg184
(lp3935
F0.05
aI3
asg179
(lp3936
F0.05
aI3
ass(g143
(F3.0
F7.0
g17
tp3937
tp3938
(dp3939
g177
(lp3940
F0.005
aI1
asg184
(lp3941
F0.9
aI3
ass(g115
(F3.0
F5.0
g39
tp3942
tp3943
(dp3944
g177
(lp3945
F0.99
aI1
asg184
(lp3946
F0.05
aI3
asg179
(lp3947
F0.05
aI3
ass(g144
(F9.0
F5.0
g26
tp3948
tp3949
(dp3950
g177
(lp3951
F0.99
aI1
asg184
(lp3952
F0.05
aI3
asg179
(lp3953
F0.05
aI3
ass(g70
(F9.0
F3.0
g39
tp3954
tp3955
(dp3956
g177
(lp3957
F0.005
aI1
asg179
(lp3958
F0.9
aI3
ass(g167
(F5.0
F5.0
g39
tp3959
tp3960
(dp3961
g182
(lp3962
F0.15
aI4
ass(g155
(F1.0
F5.0
g39
tp3963
tp3964
(dp3965
g182
(lp3966
F0.7749999999999999
aI4
ass(g143
(F5.0
F5.0
g5
tp3967
tp3968
(dp3969
g182
(lp3970
F0.15
aI4
ass(g111
(F5.0
F5.0
g26
tp3971
tp3972
(dp3973
g189
(lp3974
F0.1
aI2
ass(g150
(F7.0
F9.0
g5
tp3975
tp3976
(dp3977
g177
(lp3978
F0.005
aI1
asg179
(lp3979
F0.9
aI3
ass(g18
(F1.0
F1.0
g17
tp3980
tp3981
(dp3982
g189
(lp3983
F0.1
aI2
ass(g80
(F3.0
F7.0
g26
tp3984
tp3985
(dp3986
g189
(lp3987
F0.8
aI2
ass(g133
(F7.0
F5.0
g17
tp3988
tp3989
(dp3990
g177
(lp3991
F0.99
aI1
asg184
(lp3992
F0.05
aI3
asg179
(lp3993
F0.05
aI3
ass(g117
(F5.0
F7.0
g39
tp3994
tp3995
(dp3996
g177
(lp3997
F0.005
aI1
asg184
(lp3998
F0.9
aI3
ass(g162
(F3.0
F7.0
g17
tp3999
tp4000
(dp4001
g189
(lp4002
F0.15
aI2
ass(g160
(F9.0
F1.0
g26
tp4003
tp4004
(dp4005
g177
(lp4006
F0.005
aI1
asg179
(lp4007
F0.9
aI3
ass(g151
(F9.0
F5.0
g26
tp4008
tp4009
(dp4010
g189
(lp4011
F0.1
aI2
ass(g144
(F9.0
F5.0
g39
tp4012
tp4013
(dp4014
g177
(lp4015
F0.005
aI1
asg184
(lp4016
F0.9
aI3
ass(g43
(F1.0
F9.0
g5
tp4017
tp4018
(dp4019
g189
(lp4020
F0.8500000000000001
aI2
ass(g157
(F7.0
F3.0
g39
tp4021
tp4022
(dp4023
g184
(lp4024
F0.05
aI3
asg179
(lp4025
F0.05
aI3
ass(g108
(F1.0
F7.0
g17
tp4026
tp4027
(dp4028
g182
(lp4029
F0.7749999999999999
aI4
ass(g78
(F9.0
F5.0
g39
tp4030
tp4031
(dp4032
g182
(lp4033
F0.7749999999999999
aI4
ass(g50
(F9.0
F7.0
g39
tp4034
tp4035
(dp4036
g189
(lp4037
F0.8500000000000001
aI2
ass(g119
(F9.0
F3.0
g5
tp4038
tp4039
(dp4040
g182
(lp4041
F0.225
aI4
ass(g122
(F9.0
F3.0
g39
tp4042
tp4043
(dp4044
g177
(lp4045
F0.005
aI1
asg184
(lp4046
F0.9
aI3
ass(g67
(F5.0
F7.0
g17
tp4047
tp4048
(dp4049
g177
(lp4050
F0.99
aI1
asg184
(lp4051
F0.05
aI3
asg179
(lp4052
F0.05
aI3
ass(g58
(F7.0
F5.0
g5
tp4053
tp4054
(dp4055
g182
(lp4056
F0.15
aI4
ass(g78
(F9.0
F7.0
g39
tp4057
tp4058
(dp4059
g177
(lp4060
F0.99
aI1
asg184
(lp4061
F0.05
aI3
asg179
(lp4062
F0.05
aI3
ass(g77
(F1.0
F9.0
g17
tp4063
tp4064
(dp4065
g177
(lp4066
F0.005
aI1
asg179
(lp4067
F0.9
aI3
ass(g164
(F3.0
F5.0
g5
tp4068
tp4069
(dp4070
g182
(lp4071
F0.15
aI4
ass(g136
(F5.0
F7.0
g17
tp4072
tp4073
(dp4074
g189
(lp4075
F0.8
aI2
ass(g142
(F5.0
F3.0
g26
tp4076
tp4077
(dp4078
g189
(lp4079
F0.8
aI2
ass(g165
(F5.0
F5.0
g5
tp4080
tp4081
(dp4082
g184
(lp4083
F0.05
aI3
asg179
(lp4084
F0.05
aI3
ass(g161
(F5.0
F7.0
g39
tp4085
tp4086
(dp4087
g182
(lp4088
F0.15
aI4
ass(g55
(F7.0
F5.0
g5
tp4089
tp4090
(dp4091
g177
(lp4092
F0.005
aI1
asg184
(lp4093
F0.9
aI3
ass(g114
(F9.0
F7.0
g5
tp4094
tp4095
(dp4096
g184
(lp4097
F0.05
aI3
asg179
(lp4098
F0.05
aI3
ass(g149
(F5.0
F9.0
g26
tp4099
tp4100
(dp4101
g189
(lp4102
F0.8500000000000001
aI2
ass(g78
(F7.0
F9.0
g39
tp4103
tp4104
(dp4105
g189
(lp4106
F0.15
aI2
ass(g158
(F9.0
F9.0
g26
tp4107
tp4108
(dp4109
g177
(lp4110
F0.005
aI1
asg184
(lp4111
F0.9
aI3
ass(g166
(F3.0
F1.0
g5
tp4112
tp4113
(dp4114
g189
(lp4115
F0.8500000000000001
aI2
ass(g104
(F3.0
F3.0
g17
tp4116
tp4117
(dp4118
g189
(lp4119
F0.8
aI2
ass(g92
(F9.0
F9.0
g17
tp4120
tp4121
(dp4122
g184
(lp4123
F0.05
aI3
asg179
(lp4124
F0.05
aI3
ass(g107
(F1.0
F3.0
g17
tp4125
tp4126
(dp4127
g177
(lp4128
F0.005
aI1
asg179
(lp4129
F0.9
aI3
ass(g146
(F3.0
F7.0
g26
tp4130
tp4131
(dp4132
g177
(lp4133
F0.005
aI1
asg184
(lp4134
F0.9
aI3
ass(g109
(F7.0
F5.0
g26
tp4135
tp4136
(dp4137
g189
(lp4138
F0.1
aI2
ass(g126
(F5.0
F7.0
g5
tp4139
tp4140
(dp4141
g177
(lp4142
F0.005
aI1
asg184
(lp4143
F0.9
aI3
ass(g48
(F1.0
F5.0
g39
tp4144
tp4145
(dp4146
g189
(lp4147
F0.1
aI2
ass(g120
(F3.0
F3.0
g39
tp4148
tp4149
(dp4150
g189
(lp4151
F0.15
aI2
ass(g156
(F9.0
F9.0
g5
tp4152
tp4153
(dp4154
g182
(lp4155
F0.7749999999999999
aI4
ass(g118
(F7.0
F1.0
g17
tp4156
tp4157
(dp4158
g189
(lp4159
F0.1
aI2
ass(g82
(F9.0
F3.0
g26
tp4160
tp4161
(dp4162
g177
(lp4163
F0.005
aI1
asg184
(lp4164
F0.9
aI3
ass(g134
(F7.0
F9.0
g17
tp4165
tp4166
(dp4167
g182
(lp4168
F0.225
aI4
ass(g152
(F5.0
F3.0
g5
tp4169
tp4170
(dp4171
g189
(lp4172
F0.8
aI2
ass(g58
(F5.0
F7.0
g39
tp4173
tp4174
(dp4175
g177
(lp4176
F0.005
aI1
asg179
(lp4177
F0.9
aI3
ass(g138
(F3.0
F3.0
g26
tp4178
tp4179
(dp4180
g182
(lp4181
F0.225
aI4
ass(g49
(F3.0
F1.0
g17
tp4182
tp4183
(dp4184
g189
(lp4185
F0.15
aI2
ass(g106
(F9.0
F1.0
g26
tp4186
tp4187
(dp4188
g184
(lp4189
F0.05
aI3
asg179
(lp4190
F0.05
aI3
ass(g109
(F3.0
F1.0
g26
tp4191
tp4192
(dp4193
g182
(lp4194
F0.15
aI4
ass(g129
(F1.0
F1.0
g5
tp4195
tp4196
(dp4197
g177
(lp4198
F0.99
aI1
asg184
(lp4199
F0.05
aI3
asg179
(lp4200
F0.05
aI3
ass(g143
(F5.0
F7.0
g5
tp4201
tp4202
(dp4203
g182
(lp4204
F0.7
aI4
ass(g48
(F3.0
F1.0
g39
tp4205
tp4206
(dp4207
g182
(lp4208
F0.7
aI4
ass(g83
(F5.0
F9.0
g17
tp4209
tp4210
(dp4211
g177
(lp4212
F0.005
aI1
asg179
(lp4213
F0.9
aI3
ass(g51
(F5.0
F5.0
g26
tp4214
tp4215
(dp4216
g189
(lp4217
F0.8
aI2
ass(g167
(F7.0
F7.0
g17
tp4218
tp4219
(dp4220
g184
(lp4221
F0.05
aI3
asg179
(lp4222
F0.05
aI3
ass(g107
(F3.0
F3.0
g26
tp4223
tp4224
(dp4225
g189
(lp4226
F0.8
aI2
ass(g82
(F9.0
F5.0
g17
tp4227
tp4228
(dp4229
g182
(lp4230
F0.7749999999999999
aI4
ass(g129
(F1.0
F1.0
g17
tp4231
tp4232
(dp4233
g177
(lp4234
F0.005
aI1
asg184
(lp4235
F0.9
aI3
ass(g68
(F3.0
F1.0
g5
tp4236
tp4237
(dp4238
g184
(lp4239
F0.05
aI3
asg179
(lp4240
F0.05
aI3
ass(g68
(F3.0
F1.0
g26
tp4241
tp4242
(dp4243
g177
(lp4244
F0.99
aI1
asg184
(lp4245
F0.05
aI3
asg179
(lp4246
F0.05
aI3
ass(g83
(F5.0
F9.0
g5
tp4247
tp4248
(dp4249
g184
(lp4250
F0.05
aI3
asg179
(lp4251
F0.05
aI3
asss.